(dp1
S'output'
p2
S"<class 'sqlite3.OperationalError'> no such column: maanesh"
p3
sS'layer'
p4
S'/home/ashish/web2py/applications/project/controllers/default.py'
p5
sS'code'
p6
S'import re\n# -*- coding: utf-8 -*-\n# this file is released under public domain and you can use without limitations\n\n#########################################################################\n## This is a samples controller\n## - index is the default action of any application\n## - user is required for authentication and authorization\n## - download is for downloading files uploaded in the db (does streaming)\n## - call exposes all registered services (none by default)\n#########################################################################\n\n\ndef index():\n    """\n    example action using the internationalization operator T and flash\n    rendered by views/default/index.html or views/generic.html\n\n    if you need a simple wiki simple replace the two lines below with:\n    return auth.wiki()\n    """\n#response.flash = T("Welcome to web2py!")\n#   return dict(message=T(\'Hello World\'))\n    redirect(URL(\'first\'))\n\ndef user():\n    """\n    exposes:\n    http://..../[app]/default/user/login\n    http://..../[app]/default/user/logout\n    http://..../[app]/default/user/register\n    http://..../[app]/default/user/profile\n    http://..../[app]/default/user/retrieve_password\n    http://..../[app]/default/user/change_password\n    use @auth.requires_login()\n        @auth.requires_membership(\'group name\')\n        @auth.requires_permission(\'read\',\'table name\',record_id)\n    to decorate functions that need access control\n    """\n    return dict(form=auth())\n\n\ndef download():\n    """\n    allows downloading of uploaded files\n    http://..../[app]/default/download/[filename]\n    """\n    return response.download(request, db)\n\n\ndef call():\n    """\n    exposes services. for example:\n    http://..../[app]/default/call/jsonrpc\n    decorate with @services.jsonrpc the functions to expose\n    supports xml, json, xmlrpc, jsonrpc, amfrpc, rss, csv\n    """\n    return service()\n\n@auth.requires_signature()\ndef data():\n    """\n    http://..../[app]/default/data/tables\n    http://..../[app]/default/data/create/[table]\n    http://..../[app]/default/data/read/[table]/[id]\n    http://..../[app]/default/data/update/[table]/[id]\n    http://..../[app]/default/data/delete/[table]/[id]\n    http://..../[app]/default/data/select/[table]\n    http://..../[app]/default/data/search/[table]\n    but URLs must be signed, i.e. linked with\n      A(\'table\',_href=URL(\'data/tables\',user_signature=True))\n    or with the signed load operator\n      LOAD(\'default\',\'data.load\',args=\'tables\',ajax=True,user_signature=True)\n    """\n    return dict(form=crud())\n\n@auth.requires_login()\ndef upload():\n\t\tform=SQLFORM(db.project)\n\t\tif form.process().accepted:\n\t\t\tresponse.flash=\'your project is added\'\n\t\treturn dict(form=form)\ndef first():\n#   \tflag=0\n#\tif request.args(0,cast=int)==1:\n#\t\tflag=1\n    \tif auth.user:\n\t\tredirect(\'users\')\n\tcat=db().select(db.project.ALL)\n\tl=db(db.project.id>0).select(db.project.ALL,orderby=~db.project.count_download)\n    \tco=db(db.project.id>0).select(db.project.ALL,orderby=~db.project.count_comment)\n\trt=db(db.project.id>0).select(db.project.ALL,orderby=~db.project.count_rate)\n\treturn dict(cat=cat,l=l,co=co,rt=rt)\ndef users():\n    \tp_share={}\n    \tshare=db(db.collaborators.collaborator==db.auth_user[auth.user_id].email).select(db.collaborators.ALL)\n\tfor i in range(0,len(share)):\n\t    r=db(db.project.id==share[i][\'project_id\']).select(db.project.ALL)\n\t    l=db(db.auth_user.id==r[0][\'created_by\']).select(db.auth_user[r[0][\'created_by\']].first_name)\n\t    p_share.append[l[0]]=r[0][\'Name\']\n    \tshw={}\n    \tgrid={}\n\tlis={}\n\tfrequest=db(db.friend.send_to==auth.user_id).select(db.friend.ALL)\n\tffrequest=db(db.friend.send_by==auth.user_id).select(db.friend.ALL)\n    \tfor i in frequest:\n\t\tif i[\'confirm\']==0:\n\t\t\tname=db(db.auth_user.id==i[\'send_by\']).select(db.auth_user.username)\n\t\t\tlis[name[0][\'username\']]=i[\'send_by\']\n\t\telse:\n\t\t\ttoshow=db(db.auth_user.id==i[\'send_by\']).select(db.auth_user.ALL)\n#shw.append(toshow[0][\'username\'])\n\t\t\tshw[i[\'send_by\']]=toshow[0][\'username\']\n\tfor i in ffrequest:\n\t\tif i[\'confirm\']==1:\n\t\t\ttosh=db(db.auth_user.id==i[\'send_to\']).select(db.auth_user.ALL)\n#\t\t\tshw.append(tosh[0])\n\t\t\tshw[i[\'send_to\']]=tosh[0][\'username\']\n    \tif auth.user:\n\t\tflag=1\n#grid=SQLFORM.smartgrid(db.project,a,csv=False,field_id=None)\n\t\tgrid=db(db.project.created_by==auth.user_id).select(db.project.ALL)\n\tif request.vars.upload:\n\t\tredirect(URL(\'upload\'))\n    \tr=[]\n\treturn dict(shw=shw,lis=lis,frequest=frequest,grid=grid,r=r,p_share=p_share)\n\ndef show():\n    temp=request.args(0,cast=int)\n    l=db(db.project.id==temp).select(db.project.category)\n    projct=db(db.project.category==l[0][\'category\']).select(db.project.ALL)\n    return dict(l=l,projct=projct)\n\ndef user1():\n    temp=request.args(0,cast=int)\n    frm={}\n    downl=db(db.project.id==temp).select(db.project.project)\n    down=downl[0][\'project\']\n    nae=db(db.project.id==temp).select(db.project.Name)\n    name=nae[0][\'Name\']\n    if auth.user:\t\n\t   db.ratecomment.email.readable=False\n\t   db.ratecomment.email.writable=False\n    \t   r=db(db.project.id==temp).select(db.project.created_by)\n    \t   l=r[0][\'created_by\']\n    \t   if l!=auth.user_id:\n   \t\t\tflag=1\n   \t   else:\n          \t\tflag=2\n    else:\n    \tflag=0\n    if flag==1:\n    \tdb.ratecomment.created_by.default=auth.user_id\n    form=SQLFORM(db.ratecomment)\n    db.ratecomment.project_id.default=temp\n    if form.process().accepted:\n\tresponse.flash=\'your comment is posted\'\n    \tif flag!=2:\n\t\tmyset2=db(db.project.id==temp)\t\n\t\tcom=db(db.project.id==temp).select(db.project.count_comment)\n\t\tcont=com[0][\'count_comment\']\n\t\tr=db(db.project.id==temp).select(db.project.count_rate)\n\t\trt=r[0][\'count_rate\']\n    \t\trat=((rt*(cont-1))+int(request.vars.rate))/(cont)\n\t\tmyset2.update(count_rate=rat)\n\t\tmyset2.update(count_comment=cont+1)\n    comment=db(db.ratecomment.project_id==temp).select(db.ratecomment.ALL)\n    return dict(temp=temp,down=down,name=name,flag=flag,form=form,comment=comment)\ndef download():\n\tmyset=db(db.project.id==request.args[1])\n\tc=db(db.project.id==request.args[1]).select(db.project.count_download)\n    \tcn=c[0][\'count_download\']\n\tmyset.update(count_download=cn+1)\n    \tredirect(URL(\'down\',args=request.args[0]))\ndef down():\n    \treturn response.download(request,db)\ndef profile():\n    \treturn dict(form=auth.profile())\ndef search():\n    \ta=request.vars.search\n\tlis=[]\n\tnam=db(db.project.id>0).select(db.project.ALL)\n\tfor i in range(0,len(nam)):\n\t    l=re.search(a,nam[i][\'Name\'])\n\t    lp=re.search(a,nam[i][\'description\'])\n\t    if l:\n\t    \tlis.append(nam[i])\n\t    if lp:\n\t\tlis.append(nam[i])\n\treturn dict(lis=lis)\ndef search2():\n    a=request.vars.search\n    nam=[]\n    name=db(db.auth_user.id>0).select(db.auth_user.ALL)\n    l=len(name)\n    for i in range(0,l):\n\tmat=re.search(a,name[i][\'first_name\'])\n\tif mat:\n\t   nam.append(name[i])\n    return dict(nam=nam)\ndef first2():\n    \tflag=1\n    \ttemp=request.args(0,cast=int)\n    \tif auth.user_id==temp:\n\t    redirect(URL(\'first\'))\n\tsendto=db((db.friend.send_to==temp)&(db.friend.send_to!=db.friend.send_by)).select(db.friend.ALL)\n\tsendauth=db((db.friend.send_to==auth.user_id)&(db.friend.send_to!=db.friend.send_by)).select(db.friend.ALL)\n\tfor i in range(len(sendauth)):\n\t    if sendauth[i][\'send_by\']==temp:\n\t    \tif sendauth[i][\'confirm\']==1:\n\t    \t\tflag=3\n\t    \t\tbreak\n\t    \telse:\n\t    \t\tflag=2\n\t    \t\tbreak\n\tfor i in range(len(sendto)):\n\t    if sendto[i][\'send_by\']==auth.user_id:\n\t    \tif sendto[i][\'confirm\']==1:\n\t    \t\tflag=3\n\t    \t\tbreak\n\t    \telse:\n\t    \t\tflag=2\n\t    \t\tbreak\t\n    \tproj=db(db.project.created_by==temp).select(db.project.ALL)\n\tuse=db(db.auth_user.id==temp).select(db.auth_user.ALL)\n\treturn dict(sendauth=sendauth,use=use,flag=flag,proj=proj,temp=temp)\ndef insert():\n    l1=request.args(0,cast=int)\n    db.friend.insert(send_to=l1,send_by=auth.user_id,confirm=0)\n    redirect(URL(\'first2\',args=l1))\ndef confirm():\n    t=request.args(0,cast=int)\n    my=db((db.friend.send_by==t)&(db.friend.send_to==auth.user_id))\n    my.update(confirm=1)\n    response.flash=\'friend request accepted\'\n    redirect(URL(first))\ndef reject():\n   \tt=request.args(0,cast=int)\t\n    \tdb((db.friend.send_by==t)&(db.friend.send_to==auth.user_id)).delete()\n\tredirect(URL(first))\ndef dev():\n    temp=request.args(0,cast=int)\n    col=db(db.collaborators.project_id==temp).select(db.collaborators.ALL)\n    name=db(db.project.id==temp).select(db.project.Name)\n    proj=db(db.project.id==temp).select(db.project.ALL)\n    return dict(proj=proj,name=name,col=col)\ndef delete():\n    temp=request.args(0,cast=int)\n    db(db.project.id==temp).delete()\n    redirect(URL(first))\ndef add():\n\ttemp=request.args(0,cast=int)\n\tdic=[]\n\talr=db(db.collaborators.project_id==temp).select(db.collaborators.collaborator)\n\tfor i in alr:\n\t\tdic.append(i[\'collaborator\'])\n\tlis=[]\n\tfrid=db(((db.friend.send_to==auth.user_id)|(db.friend.send_by==auth.user_id))&(db.friend.confirm==1)).select(db.friend.ALL)\t\n\tfor i in frid:\n\t\tif i[\'send_to\']==auth.user_id :\n\t\t\tc=db.auth_user[i[\'send_by\']].email\n\t\t\tif c  not in dic:\n\t\t\t\tlis.append(db.auth_user[i[\'send_by\']].email)\n\t\telif i[\'send_by\']==auth.user_id:\n\t\t\tc=db.auth_user[i[\'send_to\']].email\n\t\t\tif c  not in dic:\n\t\t\t\tlis.append(db.auth_user[i[\'send_to\']].email)\n\tform=SQLFORM.factory(\n\t    Field(\'Choose_friend\',requires=IS_IN_SET((lis)))\n\t    )\n\tif form.process().accepted:\n\t\tdb.collaborators.insert(project_id=temp,collaborator=request.vars.Choose_friend)\n\t\tredirect(URL(add,args=temp))\n\treturn dict(form=form)\ndef remove():\n    \ttemp=request.args(0,cast=int)\n\ttemp1=request.args(1,cast=int)\n    \tdb(db.collaborators.id==temp).delete()\n\tredirect(URL(dev,args=temp1))\n\nresponse._vars=response._caller(users)\n'
p7
sS'snapshot'
p8
(dp9
S'exception'
p10
(dp11
S'__module__'
p12
S"'sqlite3'"
p13
sS'__getslice__'
p14
S"<method-wrapper '__getslice__' of OperationalError object>"
p15
sS'__str__'
p16
S"<method-wrapper '__str__' of OperationalError object>"
p17
sS'__reduce__'
p18
S'<built-in method __reduce__ of OperationalError object>'
p19
sS'__dict__'
p20
S'{}'
p21
sS'__sizeof__'
p22
S'<built-in method __sizeof__ of OperationalError object>'
p23
sS'__weakref__'
p24
S'None'
p25
sS'__init__'
p26
S"<method-wrapper '__init__' of OperationalError object>"
p27
sS'__setattr__'
p28
S"<method-wrapper '__setattr__' of OperationalError object>"
p29
sS'__reduce_ex__'
p30
S'<built-in method __reduce_ex__ of OperationalError object>'
p31
sS'__new__'
p32
S'<built-in method __new__ of type object>'
p33
sS'__format__'
p34
S'<built-in method __format__ of OperationalError object>'
p35
sS'__class__'
p36
S"<class 'sqlite3.OperationalError'>"
p37
sS'__doc__'
p38
S'None'
p39
sS'__getitem__'
p40
S"<method-wrapper '__getitem__' of OperationalError object>"
p41
sS'__setstate__'
p42
S'<built-in method __setstate__ of OperationalError object>'
p43
sS'__getattribute__'
p44
S"<method-wrapper '__getattribute__' of OperationalError object>"
p45
sS'args'
p46
S"('no such column: maanesh',)"
p47
sS'__subclasshook__'
p48
S'<built-in method __subclasshook__ of type object>'
p49
sS'__unicode__'
p50
S'<built-in method __unicode__ of OperationalError object>'
p51
sS'__delattr__'
p52
S"<method-wrapper '__delattr__' of OperationalError object>"
p53
sS'__repr__'
p54
S"<method-wrapper '__repr__' of OperationalError object>"
p55
sS'__hash__'
p56
S"<method-wrapper '__hash__' of OperationalError object>"
p57
ssS'evalue'
p58
S'no such column: maanesh'
p59
sS'request'
p60
cgluon.html
XML_unpickle
p61
(S's\x87U\x00\x00<div><table><tr><td style="font-weight:bold;vertical-align:top">ajax</td><td valign="top">:</td><td><div>False</div></td></tr><tr><td style="font-weight:bold;vertical-align:top">application</td><td valign="top">:</td><td><div>project</div></td></tr><tr><td style="font-weight:bold;vertical-align:top">args</td><td valign="top">:</td><td><div><table></table></div></td></tr><tr><td style="font-weight:bold;vertical-align:top">body</td><td valign="top">:</td><td><div>&lt;cStringIO.StringO object at 0xad763540&gt;</div></td></tr><tr><td style="font-weight:bold;vertical-align:top">cid</td><td valign="top">:</td><td><div>None</div></td></tr><tr><td style="font-weight:bold;vertical-align:top">client</td><td valign="top">:</td><td><div>127.0.0.1</div></td></tr><tr><td style="font-weight:bold;vertical-align:top">controller</td><td valign="top">:</td><td><div>default</div></td></tr><tr><td style="font-weight:bold;vertical-align:top">cookies</td><td valign="top">:</td><td><div><table><tr><td style="font-weight:bold;vertical-align:top">session_id_admin</td><td valign="top">:</td><td><div>127.0.0.1-5874c0f2-98d4-470b-b138-d3af15ded98f<table><tr><td style="font-weight:bold;vertical-align:top">comment</td><td valign="top">:</td><td><div></div></td></tr><tr><td style="font-weight:bold;vertical-align:top">domain</td><td valign="top">:</td><td><div></div></td></tr><tr><td style="font-weight:bold;vertical-align:top">expires</td><td valign="top">:</td><td><div></div></td></tr><tr><td style="font-weight:bold;vertical-align:top">httponly</td><td valign="top">:</td><td><div></div></td></tr><tr><td style="font-weight:bold;vertical-align:top">max-age</td><td valign="top">:</td><td><div></div></td></tr><tr><td style="font-weight:bold;vertical-align:top">path</td><td valign="top">:</td><td><div></div></td></tr><tr><td style="font-weight:bold;vertical-align:top">secure</td><td valign="top">:</td><td><div></div></td></tr><tr><td style="font-weight:bold;vertical-align:top">version</td><td valign="top">:</td><td><div></div></td></tr></table></div></td></tr><tr><td style="font-weight:bold;vertical-align:top">session_id_project</td><td valign="top">:</td><td><div>127.0.0.1-3c86e50b-05aa-4b9f-8aad-2ce177e77686<table><tr><td style="font-weight:bold;vertical-align:top">comment</td><td valign="top">:</td><td><div></div></td></tr><tr><td style="font-weight:bold;vertical-align:top">domain</td><td valign="top">:</td><td><div></div></td></tr><tr><td style="font-weight:bold;vertical-align:top">expires</td><td valign="top">:</td><td><div></div></td></tr><tr><td style="font-weight:bold;vertical-align:top">httponly</td><td valign="top">:</td><td><div></div></td></tr><tr><td style="font-weight:bold;vertical-align:top">max-age</td><td valign="top">:</td><td><div></div></td></tr><tr><td style="font-weight:bold;vertical-align:top">path</td><td valign="top">:</td><td><div></div></td></tr><tr><td style="font-weight:bold;vertical-align:top">secure</td><td valign="top">:</td><td><div></div></td></tr><tr><td style="font-weight:bold;vertical-align:top">version</td><td valign="top">:</td><td><div></div></td></tr></table></div></td></tr><tr><td style="font-weight:bold;vertical-align:top">session_id_welcome</td><td valign="top">:</td><td><div>127.0.0.1-fa64d000-8d4b-4578-979c-5e81c1aca97b<table><tr><td style="font-weight:bold;vertical-align:top">comment</td><td valign="top">:</td><td><div></div></td></tr><tr><td style="font-weight:bold;vertical-align:top">domain</td><td valign="top">:</td><td><div></div></td></tr><tr><td style="font-weight:bold;vertical-align:top">expires</td><td valign="top">:</td><td><div></div></td></tr><tr><td style="font-weight:bold;vertical-align:top">httponly</td><td valign="top">:</td><td><div></div></td></tr><tr><td style="font-weight:bold;vertical-align:top">max-age</td><td valign="top">:</td><td><div></div></td></tr><tr><td style="font-weight:bold;vertical-align:top">path</td><td valign="top">:</td><td><div></div></td></tr><tr><td style="font-weight:bold;vertical-align:top">secure</td><td valign="top">:</td><td><div></div></td></tr><tr><td style="font-weight:bold;vertical-align:top">version</td><td valign="top">:</td><td><div></div></td></tr></table></div></td></tr></table></div></td></tr><tr><td style="font-weight:bold;vertical-align:top">env</td><td valign="top">:</td><td><div><table><tr><td style="font-weight:bold;vertical-align:top">app_folders</td><td valign="top">:</td><td><div>set([&#x27;/home/ashish/web2py/applications/welcome/&#x27;, &#x27;/home/ashish/web2py/applications/project/&#x27;, &#x27;/home/ashish/web2py/applications/admin/&#x27;])</div></td></tr><tr><td style="font-weight:bold;vertical-align:top">applications_parent</td><td valign="top">:</td><td><div>/home/ashish/web2py</div></td></tr><tr><td style="font-weight:bold;vertical-align:top">cmd_args</td><td valign="top">:</td><td><div><table></table></div></td></tr><tr><td style="font-weight:bold;vertical-align:top">cmd_options</td><td valign="top">:</td><td><div>&lt;Values at 0x9ac3b8c: {&#x27;verbose&#x27;: False, &#x27;ip&#x27;: &#x27;127.0.0.1&#x27;, &#x27;with_scheduler&#x27;: False, &#x27;ips&#x27;: [], &#x27;shutdown_timeout&#x27;: 5, &#x27;taskbar&#x27;: False, &#x27;port&#x27;: 8000, &#x27;maxthreads&#x27;: None, &#x27;softcron&#x27;: False, &#x27;server_name&#x27;: &#x27;ashish-PC&#x27;, &#x27;bpython&#x27;: False, &#x27;nogui&#x27;: False, &#x27;pid_filename&#x27;: &#x27;httpserver.pid&#x27;, &#x27;extcron&#x27;: False, &#x27;runcron&#x27;: False, &#x27;run_system_tests&#x27;: False, &#x27;test&#x27;: None, &#x27;folder&#x27;: &#x27;/home/ashish/web2py&#x27;, &#x27;config&#x27;: &#x27;&#x27;, &#x27;import_models&#x27;: False, &#x27;winservice&#x27;: &#x27;&#x27;, &#x27;shell&#x27;: None, &#x27;run&#x27;: &#x27;&#x27;, &#x27;log_filename&#x27;: &#x27;httpserver.log&#x27;, &#x27;debuglevel&#x27;: 30, &#x27;args&#x27;: [&#x27;&#x27;], &#x27;socket_timeout&#x27;: 5, &#x27;ssl_ca_certificate&#x27;: None, &#x27;scheduler&#x27;: None, &#x27;profiler_filename&#x27;: None, &#x27;ssl_private_key&#x27;: &#x27;&#x27;, &#x27;scheduler_groups&#x27;: None, &#x27;password&#x27;: &#x27;&lt;ask&gt;&#x27;, &#x27;request_queue_size&#x27;: 5, &#x27;ssl_certificate&#x27;: &#x27;&#x27;, &#x27;cronjob&#x27;: False, &#x27;numthreads&#x27;: None, &#x27;quiet&#x27;: False, &#x27;interfaces&#x27;: None, &#x27;minthreads&#x27;: None, &#x27;timeout&#x27;: 10, &#x27;plain&#x27;: False, &#x27;nobanner&#x27;: False}&gt;</div></td></tr><tr><td style="font-weight:bold;vertical-align:top">db_sessions</td><td valign="top">:</td><td><div>set([])</div></td></tr><tr><td style="font-weight:bold;vertical-align:top">debugging</td><td valign="top">:</td><td><div>False</div></td></tr><tr><td style="font-weight:bold;vertical-align:top">gluon_parent</td><td valign="top">:</td><td><div>/home/ashish/web2py</div></td></tr><tr><td style="font-weight:bold;vertical-align:top">http_accept</td><td valign="top">:</td><td><div>text/html,application/xhtml+xml,application/xml;q=0.9,*/*;q=0.8</div></td></tr><tr><td style="font-weight:bold;vertical-align:top">http_accept_encoding</td><td valign="top">:</td><td><div>gzip, deflate</div></td></tr><tr><td style="font-weight:bold;vertical-align:top">http_accept_language</td><td valign="top">:</td><td><div>en-US,en;q=0.5</div></td></tr><tr><td style="font-weight:bold;vertical-align:top">http_cache_control</td><td valign="top">:</td><td><div>max-age=0</div></td></tr><tr><td style="font-weight:bold;vertical-align:top">http_connection</td><td valign="top">:</td><td><div>keep-alive</div></td></tr><tr><td style="font-weight:bold;vertical-align:top">http_cookie</td><td valign="top">:</td><td><div>session_id_welcome=127.0.0.1-fa64d000-8d4b-4578-979c-5e81c1aca97b; session_id_admin=127.0.0.1-5874c0f2-98d4-470b-b138-d3af15ded98f; session_id_project=127.0.0.1-3c86e50b-05aa-4b9f-8aad-2ce177e77686</div></td></tr><tr><td style="font-weight:bold;vertical-align:top">http_host</td><td valign="top">:</td><td><div>127.0.0.1:8000</div></td></tr><tr><td style="font-weight:bold;vertical-align:top">http_referer</td><td valign="top">:</td><td><div>http://127.0.0.1:8000/project/default/user/login?_next=/project/default/first</div></td></tr><tr><td style="font-weight:bold;vertical-align:top">http_user_agent</td><td valign="top">:</td><td><div>Mozilla/5.0 (X11; Ubuntu; Linux i686; rv:18.0) Gecko/20100101 Firefox/18.0</div></td></tr><tr><td style="font-weight:bold;vertical-align:top">is_jython</td><td valign="top">:</td><td><div>False</div></td></tr><tr><td style="font-weight:bold;vertical-align:top">is_pypy</td><td valign="top">:</td><td><div>False</div></td></tr><tr><td style="font-weight:bold;vertical-align:top">local_hosts</td><td valign="top">:</td><td><div><table><tr><td><div>::1</div></td></tr><tr><td><div>127.0.1.1</div></td></tr><tr><td><div>::ffff:127.0.0.1</div></td></tr><tr><td><div>127.0.0.1</div></td></tr><tr><td><div>ashish-PC</div></td></tr></table></div></td></tr><tr><td style="font-weight:bold;vertical-align:top">path_info</td><td valign="top">:</td><td><div>/project/default/users</div></td></tr><tr><td style="font-weight:bold;vertical-align:top">query_string</td><td valign="top">:</td><td><div></div></td></tr><tr><td style="font-weight:bold;vertical-align:top">remote_addr</td><td valign="top">:</td><td><div>127.0.0.1</div></td></tr><tr><td style="font-weight:bold;vertical-align:top">remote_port</td><td valign="top">:</td><td><div>52036</div></td></tr><tr><td style="font-weight:bold;vertical-align:top">request_method</td><td valign="top">:</td><td><div>GET</div></td></tr><tr><td style="font-weight:bold;vertical-align:top">request_uri</td><td valign="top">:</td><td><div>/project/default/users</div></td></tr><tr><td style="font-weight:bold;vertical-align:top">script_name</td><td valign="top">:</td><td><div></div></td></tr><tr><td style="font-weight:bold;vertical-align:top">server_name</td><td valign="top">:</td><td><div>ashish-PC</div></td></tr><tr><td style="font-weight:bold;vertical-align:top">server_port</td><td valign="top">:</td><td><div>8000</div></td></tr><tr><td style="font-weight:bold;vertical-align:top">server_protocol</td><td valign="top">:</td><td><div>HTTP/1.1</div></td></tr><tr><td style="font-weight:bold;vertical-align:top">server_software</td><td valign="top">:</td><td><div>Rocket 1.2.6</div></td></tr><tr><td style="font-weight:bold;vertical-align:top">web2py_path</td><td valign="top">:</td><td><div>/home/ashish/web2py</div></td></tr><tr><td style="font-weight:bold;vertical-align:top">web2py_version</td><td valign="top">:</td><td><div><table><tr><td><div>2</div></td></tr><tr><td><div>4</div></td></tr><tr><td><div>2</div></td></tr><tr><td><div>stable</div></td></tr><tr><td><div>datetime.datetime(2013, 3, 4, 3, 26, 21)</div></td></tr></table></div></td></tr><tr><td style="font-weight:bold;vertical-align:top">wsgi_errors</td><td valign="top">:</td><td><div>&lt;open file &#x27;&lt;stderr&gt;&#x27;, mode &#x27;w&#x27; at 0xb73750d0&gt;</div></td></tr><tr><td style="font-weight:bold;vertical-align:top">wsgi_file_wrapper</td><td valign="top">:</td><td><div>&lt;class wsgiref.util.FileWrapper at 0x9a67e3c&gt;</div></td></tr><tr><td style="font-weight:bold;vertical-align:top">wsgi_input</td><td valign="top">:</td><td><div>&lt;socket._fileobject object at 0xadb530ac&gt;</div></td></tr><tr><td style="font-weight:bold;vertical-align:top">wsgi_multiprocess</td><td valign="top">:</td><td><div>False</div></td></tr><tr><td style="font-weight:bold;vertical-align:top">wsgi_multithread</td><td valign="top">:</td><td><div>True</div></td></tr><tr><td style="font-weight:bold;vertical-align:top">wsgi_run_once</td><td valign="top">:</td><td><div>False</div></td></tr><tr><td style="font-weight:bold;vertical-align:top">wsgi_url_scheme</td><td valign="top">:</td><td><div>http</div></td></tr><tr><td style="font-weight:bold;vertical-align:top">wsgi_version</td><td valign="top">:</td><td><div><table><tr><td><div>1</div></td></tr><tr><td><div>0</div></td></tr></table></div></td></tr></table></div></td></tr><tr><td style="font-weight:bold;vertical-align:top">extension</td><td valign="top">:</td><td><div>html</div></td></tr><tr><td style="font-weight:bold;vertical-align:top">folder</td><td valign="top">:</td><td><div>/home/ashish/web2py/applications/project/</div></td></tr><tr><td style="font-weight:bold;vertical-align:top">function</td><td valign="top">:</td><td><div>users</div></td></tr><tr><td style="font-weight:bold;vertical-align:top">get_vars</td><td valign="top">:</td><td><div><table></table></div></td></tr><tr><td style="font-weight:bold;vertical-align:top">global_settings</td><td valign="top">:</td><td><div><table><tr><td style="font-weight:bold;vertical-align:top">app_folders</td><td valign="top">:</td><td><div>set([&#x27;/home/ashish/web2py/applications/welcome/&#x27;, &#x27;/home/ashish/web2py/applications/project/&#x27;, &#x27;/home/ashish/web2py/applications/admin/&#x27;])</div></td></tr><tr><td style="font-weight:bold;vertical-align:top">applications_parent</td><td valign="top">:</td><td><div>/home/ashish/web2py</div></td></tr><tr><td style="font-weight:bold;vertical-align:top">cmd_args</td><td valign="top">:</td><td><div><table></table></div></td></tr><tr><td style="font-weight:bold;vertical-align:top">cmd_options</td><td valign="top">:</td><td><div>&lt;Values at 0x9ac3b8c: {&#x27;verbose&#x27;: False, &#x27;ip&#x27;: &#x27;127.0.0.1&#x27;, &#x27;with_scheduler&#x27;: False, &#x27;ips&#x27;: [], &#x27;shutdown_timeout&#x27;: 5, &#x27;taskbar&#x27;: False, &#x27;port&#x27;: 8000, &#x27;maxthreads&#x27;: None, &#x27;softcron&#x27;: False, &#x27;server_name&#x27;: &#x27;ashish-PC&#x27;, &#x27;bpython&#x27;: False, &#x27;nogui&#x27;: False, &#x27;pid_filename&#x27;: &#x27;httpserver.pid&#x27;, &#x27;extcron&#x27;: False, &#x27;runcron&#x27;: False, &#x27;run_system_tests&#x27;: False, &#x27;test&#x27;: None, &#x27;folder&#x27;: &#x27;/home/ashish/web2py&#x27;, &#x27;config&#x27;: &#x27;&#x27;, &#x27;import_models&#x27;: False, &#x27;winservice&#x27;: &#x27;&#x27;, &#x27;shell&#x27;: None, &#x27;run&#x27;: &#x27;&#x27;, &#x27;log_filename&#x27;: &#x27;httpserver.log&#x27;, &#x27;debuglevel&#x27;: 30, &#x27;args&#x27;: [&#x27;&#x27;], &#x27;socket_timeout&#x27;: 5, &#x27;ssl_ca_certificate&#x27;: None, &#x27;scheduler&#x27;: None, &#x27;profiler_filename&#x27;: None, &#x27;ssl_private_key&#x27;: &#x27;&#x27;, &#x27;scheduler_groups&#x27;: None, &#x27;password&#x27;: &#x27;&lt;ask&gt;&#x27;, &#x27;request_queue_size&#x27;: 5, &#x27;ssl_certificate&#x27;: &#x27;&#x27;, &#x27;cronjob&#x27;: False, &#x27;numthreads&#x27;: None, &#x27;quiet&#x27;: False, &#x27;interfaces&#x27;: None, &#x27;minthreads&#x27;: None, &#x27;timeout&#x27;: 10, &#x27;plain&#x27;: False, &#x27;nobanner&#x27;: False}&gt;</div></td></tr><tr><td style="font-weight:bold;vertical-align:top">db_sessions</td><td valign="top">:</td><td><div>set([])</div></td></tr><tr><td style="font-weight:bold;vertical-align:top">debugging</td><td valign="top">:</td><td><div>False</div></td></tr><tr><td style="font-weight:bold;vertical-align:top">gluon_parent</td><td valign="top">:</td><td><div>/home/ashish/web2py</div></td></tr><tr><td style="font-weight:bold;vertical-align:top">is_jython</td><td valign="top">:</td><td><div>False</div></td></tr><tr><td style="font-weight:bold;vertical-align:top">is_pypy</td><td valign="top">:</td><td><div>False</div></td></tr><tr><td style="font-weight:bold;vertical-align:top">local_hosts</td><td valign="top">:</td><td><div><table><tr><td><div>::1</div></td></tr><tr><td><div>127.0.1.1</div></td></tr><tr><td><div>::ffff:127.0.0.1</div></td></tr><tr><td><div>127.0.0.1</div></td></tr><tr><td><div>ashish-PC</div></td></tr></table></div></td></tr><tr><td style="font-weight:bold;vertical-align:top">web2py_version</td><td valign="top">:</td><td><div><table><tr><td><div>2</div></td></tr><tr><td><div>4</div></td></tr><tr><td><div>2</div></td></tr><tr><td><div>stable</div></td></tr><tr><td><div>datetime.datetime(2013, 3, 4, 3, 26, 21)</div></td></tr></table></div></td></tr></table></div></td></tr><tr><td style="font-weight:bold;vertical-align:top">is_https</td><td valign="top">:</td><td><div>False</div></td></tr><tr><td style="font-weight:bold;vertical-align:top">is_local</td><td valign="top">:</td><td><div>True</div></td></tr><tr><td style="font-weight:bold;vertical-align:top">is_restful</td><td valign="top">:</td><td><div>False</div></td></tr><tr><td style="font-weight:bold;vertical-align:top">now</td><td valign="top">:</td><td><div>datetime.datetime(2013, 4, 14, 16, 13, 11, 6541)</div></td></tr><tr><td style="font-weight:bold;vertical-align:top">post_vars</td><td valign="top">:</td><td><div><table></table></div></td></tr><tr><td style="font-weight:bold;vertical-align:top">raw_args</td><td valign="top">:</td><td><div></div></td></tr><tr><td style="font-weight:bold;vertical-align:top">raw_extension</td><td valign="top">:</td><td><div>None</div></td></tr><tr><td style="font-weight:bold;vertical-align:top">url</td><td valign="top">:</td><td><div>/project/default/users</div></td></tr><tr><td style="font-weight:bold;vertical-align:top">utcnow</td><td valign="top">:</td><td><div>datetime.datetime(2013, 4, 14, 10, 43, 11, 6567)</div></td></tr><tr><td style="font-weight:bold;vertical-align:top">uuid</td><td valign="top">:</td><td><div>project/127.0.0.1.2013-04-14.16-13-11.f61ce7d4-4100-4476-a981-1c363721f727</div></td></tr><tr><td style="font-weight:bold;vertical-align:top">vars</td><td valign="top">:</td><td><div><table></table></div></td></tr><tr><td style="font-weight:bold;vertical-align:top">wsgi</td><td valign="top">:</td><td><div><table><tr><td style="font-weight:bold;vertical-align:top">environ</td><td valign="top">:</td><td><div><table><tr><td style="font-weight:bold;vertical-align:top">HTTP_ACCEPT</td><td valign="top">:</td><td><div>text/html,application/xhtml+xml,application/xml;q=0.9,*/*;q=0.8</div></td></tr><tr><td style="font-weight:bold;vertical-align:top">HTTP_ACCEPT_ENCODING</td><td valign="top">:</td><td><div>gzip, deflate</div></td></tr><tr><td style="font-weight:bold;vertical-align:top">HTTP_ACCEPT_LANGUAGE</td><td valign="top">:</td><td><div>en-US,en;q=0.5</div></td></tr><tr><td style="font-weight:bold;vertical-align:top">HTTP_CACHE_CONTROL</td><td valign="top">:</td><td><div>max-age=0</div></td></tr><tr><td style="font-weight:bold;vertical-align:top">HTTP_CONNECTION</td><td valign="top">:</td><td><div>keep-alive</div></td></tr><tr><td style="font-weight:bold;vertical-align:top">HTTP_COOKIE</td><td valign="top">:</td><td><div>session_id_welcome=127.0.0.1-fa64d000-8d4b-4578-979c-5e81c1aca97b; session_id_admin=127.0.0.1-5874c0f2-98d4-470b-b138-d3af15ded98f; session_id_project=127.0.0.1-3c86e50b-05aa-4b9f-8aad-2ce177e77686</div></td></tr><tr><td style="font-weight:bold;vertical-align:top">HTTP_HOST</td><td valign="top">:</td><td><div>127.0.0.1:8000</div></td></tr><tr><td style="font-weight:bold;vertical-align:top">HTTP_REFERER</td><td valign="top">:</td><td><div>http://127.0.0.1:8000/project/default/user/login?_next=/project/default/first</div></td></tr><tr><td style="font-weight:bold;vertical-align:top">HTTP_USER_AGENT</td><td valign="top">:</td><td><div>Mozilla/5.0 (X11; Ubuntu; Linux i686; rv:18.0) Gecko/20100101 Firefox/18.0</div></td></tr><tr><td style="font-weight:bold;vertical-align:top">PATH_INFO</td><td valign="top">:</td><td><div>/project/default/users</div></td></tr><tr><td style="font-weight:bold;vertical-align:top">QUERY_STRING</td><td valign="top">:</td><td><div></div></td></tr><tr><td style="font-weight:bold;vertical-align:top">REMOTE_ADDR</td><td valign="top">:</td><td><div>127.0.0.1</div></td></tr><tr><td style="font-weight:bold;vertical-align:top">REMOTE_PORT</td><td valign="top">:</td><td><div>52036</div></td></tr><tr><td style="font-weight:bold;vertical-align:top">REQUEST_METHOD</td><td valign="top">:</td><td><div>GET</div></td></tr><tr><td style="font-weight:bold;vertical-align:top">REQUEST_URI</td><td valign="top">:</td><td><div>/project/default/users</div></td></tr><tr><td style="font-weight:bold;vertical-align:top">SCRIPT_NAME</td><td valign="top">:</td><td><div></div></td></tr><tr><td style="font-weight:bold;vertical-align:top">SERVER_NAME</td><td valign="top">:</td><td><div>ashish-PC</div></td></tr><tr><td style="font-weight:bold;vertical-align:top">SERVER_PORT</td><td valign="top">:</td><td><div>8000</div></td></tr><tr><td style="font-weight:bold;vertical-align:top">SERVER_PROTOCOL</td><td valign="top">:</td><td><div>HTTP/1.1</div></td></tr><tr><td style="font-weight:bold;vertical-align:top">SERVER_SOFTWARE</td><td valign="top">:</td><td><div>Rocket 1.2.6</div></td></tr><tr><td style="font-weight:bold;vertical-align:top">wsgi.errors</td><td valign="top">:</td><td><div>&lt;open file &#x27;&lt;stderr&gt;&#x27;, mode &#x27;w&#x27; at 0xb73750d0&gt;</div></td></tr><tr><td style="font-weight:bold;vertical-align:top">wsgi.file_wrapper</td><td valign="top">:</td><td><div>&lt;class wsgiref.util.FileWrapper at 0x9a67e3c&gt;</div></td></tr><tr><td style="font-weight:bold;vertical-align:top">wsgi.input</td><td valign="top">:</td><td><div>&lt;cStringIO.StringO object at 0xad763540&gt;</div></td></tr><tr><td style="font-weight:bold;vertical-align:top">wsgi.multiprocess</td><td valign="top">:</td><td><div>False</div></td></tr><tr><td style="font-weight:bold;vertical-align:top">wsgi.multithread</td><td valign="top">:</td><td><div>True</div></td></tr><tr><td style="font-weight:bold;vertical-align:top">wsgi.run_once</td><td valign="top">:</td><td><div>False</div></td></tr><tr><td style="font-weight:bold;vertical-align:top">wsgi.url_scheme</td><td valign="top">:</td><td><div>http</div></td></tr><tr><td style="font-weight:bold;vertical-align:top">wsgi.version</td><td valign="top">:</td><td><div>1</div></td></tr></table></div></td></tr></table></div></td></tr></table></div>'
tRp62
sS'frames'
p63
(lp64
(dp65
S'file'
p66
S'/home/ashish/web2py/gluon/restricted.py'
p67
sS'dump'
p68
(dp69
S'environment'
p70
S"{'A': <class 'gluon.html.A'>, 'Auth': <class 'gluon.tools.Auth'>, 'B': <class 'gluon.html.B'>, 'BEAUTIFY': <class 'gluon.html.BEAUTIFY'>, 'BODY': <class 'gluon.html.BODY'>, 'BR': <class 'gluon.html.BR'>, 'BUTTON': <class 'gluon.html.BUTTON'>, 'CAT': <class 'gluon.html.CAT'>, 'CENTER': <class 'gluon.html.CENTER'>, 'CLEANUP': <class 'gluon.validators.CLEANUP'>, ...}"
p71
sS'ccode'
p72
S'<code object <module> at 0xad757698, file "/home...ications/project/controllers/default.py", line 1>'
p73
ssS'lnum'
p74
I212
sS'lines'
p75
(dp76
I207
S'    try:'
p77
sI208
S'        if isinstance(code, types.CodeType):'
p78
sI209
S'            ccode = code'
p79
sI210
S'        else:'
p80
sI211
S'            ccode = compile2(code, layer)'
p81
sI212
S'        exec ccode in environment'
p82
sI213
S'    except HTTP:'
p83
sI214
S'        raise'
p84
sI215
S'    except RestrictedError:'
p85
sI216
S'        # do not encapsulate (obfuscate) the original RestrictedError'
p86
ssS'call'
p87
S"(code='import re\\n# -*- coding: utf-8 -*-\\n# this file is...=temp1))\\n\\nresponse._vars=response._caller(users)\\n', environment={'A': <class 'gluon.html.A'>, 'Auth': <class 'gluon.tools.Auth'>, 'B': <class 'gluon.html.B'>, 'BEAUTIFY': <class 'gluon.html.BEAUTIFY'>, 'BODY': <class 'gluon.html.BODY'>, 'BR': <class 'gluon.html.BR'>, 'BUTTON': <class 'gluon.html.BUTTON'>, 'CAT': <class 'gluon.html.CAT'>, 'CENTER': <class 'gluon.html.CENTER'>, 'CLEANUP': <class 'gluon.validators.CLEANUP'>, ...}, layer='/home/ashish/web2py/applications/project/controllers/default.py')"
p88
sS'func'
p89
S'restricted'
p90
sa(dp91
g66
S'/home/ashish/web2py/applications/project/controllers/default.py'
p92
sg68
(dp93
sg74
I281
sg75
(dp94
I270
S'\t    )'
p95
sI271
S'\tif form.process().accepted:'
p96
sI272
S'\t\tdb.collaborators.insert(project_id=temp,collaborator=request.vars.Choose_friend)'
p97
sI273
S'\t\tredirect(URL(add,args=temp))'
p98
sI274
S'\treturn dict(form=form)'
p99
sI275
S'def remove():'
p100
sI276
S'    \ttemp=request.args(0,cast=int)'
p101
sI277
S'\ttemp1=request.args(1,cast=int)'
p102
sI278
S'    \tdb(db.collaborators.id==temp).delete()'
p103
sI279
S'\tredirect(URL(dev,args=temp1))'
p104
ssg87
S'()'
p105
sg89
S'<module>'
p106
sa(dp107
g66
S'/home/ashish/web2py/gluon/globals.py'
p108
sg68
(dp109
S'self'
p110
S'undefined'
p111
sS'f'
S'<function users>'
p112
ssg74
I193
sg75
(dp113
I192
S'        self._vars = None'
p114
sI193
S'        self._caller = lambda f: f()'
p115
sI194
S'        self._view_environment = None'
p116
sI195
S'        self._custom_commit = None'
p117
sI196
S'        self._custom_rollback = None'
p118
sI197
S''
sI188
S'        self.menu = []             # used by the default view layout'
p119
sI189
S'        self.files = []            # used by web2py_ajax.html'
p120
sI190
S'        self.generic_patterns = []  # patterns to allow generic views'
p121
sI191
S"        self.delimiters = ('{{', '}}')"
p122
ssg87
S'(f=<function users>)'
p123
sg89
S'<lambda>'
p124
sa(dp125
g66
S'/home/ashish/web2py/applications/project/controllers/default.py'
p126
sg68
(dp127
S'l'
g111
sS').select'
p128
g111
sS'db.auth_user'
p129
S'<Table auth_user (id,first_name,last_name,email,...on_key,reset_password_key,registration_id,Photo)>'
p130
sS'r'
S'<Rows (1)>'
p131
sS'db.auth_user.id'
p132
S'<gluon.dal.Field object>'
p133
sS'global db'
p134
S'<DAL uri="sqlite://storage.sqlite">'
p135
sS'].first_name'
p136
g111
ssg74
I99
sg75
(dp137
I96
S'    \tshare=db(db.collaborators.collaborator==db.auth_user[auth.user_id].email).select(db.collaborators.ALL)'
p138
sI97
S'\tfor i in range(0,len(share)):'
p139
sI98
S"\t    r=db(db.project.id==share[i]['project_id']).select(db.project.ALL)"
p140
sI99
S"\t    l=db(db.auth_user.id==r[0]['created_by']).select(db.auth_user[r[0]['created_by']].first_name)"
p141
sI100
S"\t    p_share.append[l[0]]=r[0]['Name']"
p142
sI101
S'    \tshw={}'
p143
sI102
S'    \tgrid={}'
p144
sI103
S'\tlis={}'
p145
sI94
S'def users():'
p146
sI95
S'    \tp_share={}'
p147
ssg87
S'()'
p148
sg89
S'users'
p149
sa(dp150
g66
S'/home/ashish/web2py/gluon/dal.py'
p151
sg68
(dp152
S'self.query'
p153
S'<Query (auth_user.id = 24)>'
p154
sS'adapter.select'
p155
S'<bound method SQLiteAdapter.select of <gluon.dal.SQLiteAdapter object>>'
p156
sS'fields'
p157
S'[<gluon.dal.Expression object>]'
p158
sS'adapter'
p159
S'<gluon.dal.SQLiteAdapter object>'
p160
sS'attributes'
p161
g21
sS'self'
p162
S'<Set (auth_user.id = 24)>'
p163
ssg74
I9769
sg75
(dp164
I9764
S"                                    attributes.get('join',None),"
p165
sI9765
S"                                    attributes.get('left',None),"
p166
sI9766
S"                                    attributes.get('orderby',None),"
p167
sI9767
S"                                    attributes.get('groupby',None))"
p168
sI9768
S'        fields = adapter.expand_all(fields, tablenames)'
p169
sI9769
S'        return adapter.select(self.query,fields,attributes)'
p170
sI9770
S''
sI9771
S'    def nested_select(self,*fields,**attributes):'
p171
sI9772
S'        return Expression(self.db,self._select(*fields,**attributes))'
p172
sI9773
S''
ssg87
S'(self=<Set (auth_user.id = 24)>, *fields=[<gluon.dal.Expression object>], **attributes={})'
p173
sg89
S'select'
p174
sa(dp175
g66
S'/home/ashish/web2py/gluon/dal.py'
p176
sg68
(dp177
S'fields'
p178
S'[<gluon.dal.Expression object>]'
p179
sS'self'
p180
S'<gluon.dal.SQLiteAdapter object>'
p181
sS').select'
p182
S'<bound method SQLiteAdapter.select of <gluon.dal.SQLiteAdapter object>>'
p183
sS'attributes'
p184
g21
sS'global SQLiteAdapter'
p185
S"<class 'gluon.dal.SQLiteAdapter'>"
p186
sS'query'
p187
S'<Query (auth_user.id = 24)>'
p188
sS'builtinsuper'
p189
S"<type 'super'>"
p190
ssg74
I2222
sg75
(dp191
I2217
S'        Note that the entire database, rather than one record, is locked'
p192
sI2218
S'        (it will be locked eventually anyway by the following UPDATE).'
p193
sI2219
S'        """'
p194
sI2220
S"        if attributes.get('for_update', False) and not 'cache' in attributes:"
p195
sI2221
S"            self.execute('BEGIN IMMEDIATE TRANSACTION;')"
p196
sI2222
S'        return super(SQLiteAdapter, self).select(query, fields, attributes)'
p197
sI2223
S''
sI2224
S'class SpatiaLiteAdapter(SQLiteAdapter):'
p198
sI2225
S"    drivers = ('sqlite3','sqlite2')"
p199
sI2226
S''
ssg87
S'(self=<gluon.dal.SQLiteAdapter object>, query=<Query (auth_user.id = 24)>, fields=[<gluon.dal.Expression object>], attributes={})'
p200
sg89
g174
sa(dp201
g66
S'/home/ashish/web2py/gluon/dal.py'
p202
sg68
(dp203
S'fields'
p204
S'[<gluon.dal.Expression object>]'
p205
sS'self'
p206
S'<gluon.dal.SQLiteAdapter object>'
p207
sS'attributes'
p208
g21
sS'self._select_aux'
p209
S'<bound method SQLiteAdapter._select_aux of <gluon.dal.SQLiteAdapter object>>'
p210
sS'sql'
p211
S"'SELECT  maanesh FROM auth_user WHERE (auth_user.id = 24);'"
p212
ssg74
I1680
sg75
(dp213
I1675
S'            return cache_model('
p214
sI1676
S'                key,'
p215
sI1677
S'                lambda self=self,args=args:self._select_aux(*args),'
p216
sI1678
S'                time_expire)'
p217
sI1679
S'        else:'
p218
sI1680
S'            return self._select_aux(sql,fields,attributes)'
p219
sI1681
S''
sI1682
S'    def _count(self, query, distinct=None):'
p220
sI1683
S'        tablenames = self.tables(query)'
p221
sI1684
S'        if query:'
p222
ssg87
S'(self=<gluon.dal.SQLiteAdapter object>, query=<Query (auth_user.id = 24)>, fields=[<gluon.dal.Expression object>], attributes={})'
p223
sg89
g174
sa(dp224
g66
S'/home/ashish/web2py/gluon/dal.py'
p225
sg68
(dp226
S'self'
p227
S'<gluon.dal.SQLiteAdapter object>'
p228
sS'self.execute'
p229
S'<bound method SQLiteAdapter.execute of <gluon.dal.SQLiteAdapter object>>'
p230
sS'sql'
p231
S"'SELECT  maanesh FROM auth_user WHERE (auth_user.id = 24);'"
p232
ssg74
I1645
sg75
(dp233
I1640
S''
sI1641
S'    def _select_aux(self,sql,fields,attributes):'
p234
sI1642
S'        args_get = attributes.get'
p235
sI1643
S"        cache = args_get('cache',None)"
p236
sI1644
S'        if not cache:'
p237
sI1645
S'            self.execute(sql)'
p238
sI1646
S'            rows = self._fetchall()'
p239
sI1647
S'        else:'
p240
sI1648
S'            (cache_model, time_expire) = cache'
p241
sI1649
S"            key = self.uri + '/' + sql + '/rows'"
p242
ssg87
S"(self=<gluon.dal.SQLiteAdapter object>, sql='SELECT  maanesh FROM auth_user WHERE (auth_user.id = 24);', fields=[<gluon.dal.Expression object>], attributes={})"
p243
sg89
S'_select_aux'
p244
sa(dp245
g66
S'/home/ashish/web2py/gluon/dal.py'
p246
sg68
(dp247
S'a'
S"('SELECT  maanesh FROM auth_user WHERE (auth_user.id = 24);',)"
p248
sS'self'
p249
S'<gluon.dal.SQLiteAdapter object>'
p250
sS'b'
g21
sS'self.log_execute'
p251
S'<bound method SQLiteAdapter.log_execute of <gluon.dal.SQLiteAdapter object>>'
p252
ssg74
I1758
sg75
(dp253
I1760
S'    def represent(self, obj, fieldtype):'
p254
sI1761
S'        field_is_type = fieldtype.startswith'
p255
sI1762
S'        if isinstance(obj, CALLABLETYPES):'
p256
sI1753
S'        self.db._timings.append((command,time.time()-t0))'
p257
sI1754
S'        del self.db._timings[:-TIMINGSSIZE]'
p258
sI1755
S'        return ret'
p259
sI1756
S''
sI1757
S'    def execute(self, *a, **b):'
p260
sI1758
S'        return self.log_execute(*a, **b)'
p261
sI1759
S''
ssg87
S"(self=<gluon.dal.SQLiteAdapter object>, *a=('SELECT  maanesh FROM auth_user WHERE (auth_user.id = 24);',), **b={})"
p262
sg89
S'execute'
p263
sa(dp264
g66
S'/home/ashish/web2py/gluon/dal.py'
p265
sg68
(dp266
S'a'
S"('SELECT  maanesh FROM auth_user WHERE (auth_user.id = 24);',)"
p267
sS'b'
g21
sS'self'
p268
S'<gluon.dal.SQLiteAdapter object>'
p269
sS'ret'
p270
g111
sS'self.cursor'
p271
S'<sqlite3.Cursor object>'
p272
sS'self.cursor.execute'
p273
S'<built-in method execute of sqlite3.Cursor object>'
p274
ssg74
I1752
sg75
(dp275
I1747
S'        command = a[0]'
p276
sI1748
S'        if self.db._debug:'
p277
sI1749
S"            LOGGER.debug('SQL: %s' % command)"
p278
sI1750
S'        self.db._lastsql = command'
p279
sI1751
S'        t0 = time.time()'
p280
sI1752
S'        ret = self.cursor.execute(*a, **b)'
p281
sI1753
S'        self.db._timings.append((command,time.time()-t0))'
p282
sI1754
S'        del self.db._timings[:-TIMINGSSIZE]'
p283
sI1755
S'        return ret'
p284
sI1756
S''
ssg87
S"(self=<gluon.dal.SQLiteAdapter object>, *a=('SELECT  maanesh FROM auth_user WHERE (auth_user.id = 24);',), **b={})"
p285
sg89
S'log_execute'
p286
sasS'pyver'
p287
S'Python 2.7.3: /usr/bin/python (prefix: /usr)'
p288
sS'session'
p289
g61
(S's\x11\n\x00\x00<div><table><tr><td style="font-weight:bold;vertical-align:top">auth</td><td valign="top">:</td><td><div><table><tr><td style="font-weight:bold;vertical-align:top">expiration</td><td valign="top">:</td><td><div>3600</div></td></tr><tr><td style="font-weight:bold;vertical-align:top">hmac_key</td><td valign="top">:</td><td><div>d8b1fe60-97af-4dc4-9286-df2b329626ea</div></td></tr><tr><td style="font-weight:bold;vertical-align:top">last_visit</td><td valign="top">:</td><td><div>datetime.datetime(2013, 4, 14, 16, 10, 54, 508678)</div></td></tr><tr><td style="font-weight:bold;vertical-align:top">remember</td><td valign="top">:</td><td><div>False</div></td></tr><tr><td style="font-weight:bold;vertical-align:top">user</td><td valign="top">:</td><td><div><table><tr><td style="font-weight:bold;vertical-align:top">Photo</td><td valign="top">:</td><td><div>auth_user.Photo.ae6976b51340a20f.6173686973682e6a7067.jpg</div></td></tr><tr><td style="font-weight:bold;vertical-align:top">email</td><td valign="top">:</td><td><div>king009ashish@gmail.com</div></td></tr><tr><td style="font-weight:bold;vertical-align:top">first_name</td><td valign="top">:</td><td><div>ashish</div></td></tr><tr><td style="font-weight:bold;vertical-align:top">id</td><td valign="top">:</td><td><div>22</div></td></tr><tr><td style="font-weight:bold;vertical-align:top">last_name</td><td valign="top">:</td><td><div>kumar</div></td></tr><tr><td style="font-weight:bold;vertical-align:top">registration_id</td><td valign="top">:</td><td><div></div></td></tr><tr><td style="font-weight:bold;vertical-align:top">registration_key</td><td valign="top">:</td><td><div></div></td></tr><tr><td style="font-weight:bold;vertical-align:top">reset_password_key</td><td valign="top">:</td><td><div></div></td></tr><tr><td style="font-weight:bold;vertical-align:top">username</td><td valign="top">:</td><td><div>run_009</div></td></tr></table></div></td></tr><tr><td style="font-weight:bold;vertical-align:top">user_groups</td><td valign="top">:</td><td><div><table><tr><td style="font-weight:bold;vertical-align:top">15</td><td valign="top">:</td><td><div>user_22</div></td></tr></table></div></td></tr></table></div></td></tr><tr><td style="font-weight:bold;vertical-align:top">flash</td><td valign="top">:</td><td><div>None</div></td></tr><tr><td style="font-weight:bold;vertical-align:top">last_orderby</td><td valign="top">:</td><td><div>None</div></td></tr><tr><td style="font-weight:bold;vertical-align:top">last_query</td><td valign="top">:</td><td><div>db.collaborators.id&gt;0</div></td></tr></table></div>'
tRp290
sS'etype'
p291
S"<class 'sqlite3.OperationalError'>"
p292
sS'date'
p293
S'Sun Apr 14 16:13:11 2013'
p294
sS'response'
p295
g61
(S's\x91,\x00\x00<div><table><tr><td style="font-weight:bold;vertical-align:top">body</td><td valign="top">:</td><td><div>&lt;cStringIO.StringO object at 0xad874380&gt;</div></td></tr><tr><td style="font-weight:bold;vertical-align:top">cookies</td><td valign="top">:</td><td><div><table><tr><td style="font-weight:bold;vertical-align:top">session_id_project</td><td valign="top">:</td><td><div>127.0.0.1-3c86e50b-05aa-4b9f-8aad-2ce177e77686<table><tr><td style="font-weight:bold;vertical-align:top">comment</td><td valign="top">:</td><td><div></div></td></tr><tr><td style="font-weight:bold;vertical-align:top">domain</td><td valign="top">:</td><td><div></div></td></tr><tr><td style="font-weight:bold;vertical-align:top">expires</td><td valign="top">:</td><td><div></div></td></tr><tr><td style="font-weight:bold;vertical-align:top">httponly</td><td valign="top">:</td><td><div></div></td></tr><tr><td style="font-weight:bold;vertical-align:top">max-age</td><td valign="top">:</td><td><div></div></td></tr><tr><td style="font-weight:bold;vertical-align:top">path</td><td valign="top">:</td><td><div>/</div></td></tr><tr><td style="font-weight:bold;vertical-align:top">secure</td><td valign="top">:</td><td><div></div></td></tr><tr><td style="font-weight:bold;vertical-align:top">version</td><td valign="top">:</td><td><div></div></td></tr></table></div></td></tr></table></div></td></tr><tr><td style="font-weight:bold;vertical-align:top">delimiters</td><td valign="top">:</td><td><div><table><tr><td><div>{{</div></td></tr><tr><td><div>}}</div></td></tr></table></div></td></tr><tr><td style="font-weight:bold;vertical-align:top">files</td><td valign="top">:</td><td><div><table></table></div></td></tr><tr><td style="font-weight:bold;vertical-align:top">flash</td><td valign="top">:</td><td><div></div></td></tr><tr><td style="font-weight:bold;vertical-align:top">generic_patterns</td><td valign="top">:</td><td><div><table><tr><td><div>*</div></td></tr></table></div></td></tr><tr><td style="font-weight:bold;vertical-align:top">google_analytics_id</td><td valign="top">:</td><td><div>None</div></td></tr><tr><td style="font-weight:bold;vertical-align:top">headers</td><td valign="top">:</td><td><div><table><tr><td style="font-weight:bold;vertical-align:top">X-Powered-By</td><td valign="top">:</td><td><div>web2py</div></td></tr></table></div></td></tr><tr><td style="font-weight:bold;vertical-align:top">logo</td><td valign="top">:</td><td><div><a class="brand" href="http://www.web2py.com/"><b>web<span>2</span>py</b>&trade;&nbsp;</a></div></td></tr><tr><td style="font-weight:bold;vertical-align:top">menu</td><td valign="top">:</td><td><div><table><tr><td><div><table><tr><td><div>Home</div></td></tr><tr><td><div>False</div></td></tr><tr><td><div>/project/default/index</div></td></tr><tr><td><div><table></table></div></td></tr></table></div></td></tr><tr><td><div><table><tr><td><div><span class="highlighted">web2py</span></div></td></tr><tr><td><div>False</div></td></tr><tr><td><div>http://web2py.com</div></td></tr><tr><td><div><table><tr><td><div><table><tr><td><div>My Sites</div></td></tr><tr><td><div>False</div></td></tr><tr><td><div>/admin/default/site</div></td></tr></table></div></td></tr><tr><td><div><table><tr><td><div>This App</div></td></tr><tr><td><div>False</div></td></tr><tr><td><div>/admin/default/design/project</div></td></tr><tr><td><div>[(&lt;lazyT &#x27;Controller&#x27;&gt;, False, &#x27;/admin/default/edit/project/controllers/default.py&#x27;), (&lt;lazyT &#x27;View&#x27;&gt;, False, &#x27;/admin/default/edit/project/views/default/users.html&#x27;), (&lt;lazyT &#x27;Layout&#x27;&gt;, False, &#x27;/admin/default/edit/project/views/layout.html&#x27;), (&lt;lazyT &#x27;Stylesheet&#x27;&gt;, False, &#x27;/admin/default/edit/project/static/css/web2py.css&#x27;), (&lt;lazyT &#x27;DB Model&#x27;&gt;, False, &#x27;/admin/default/edit/project/models/db.py&#x27;), (&lt;lazyT &#x27;Menu Model&#x27;&gt;, False, &#x27;/admin/default/edit/project/models/menu.py&#x27;), (&lt;lazyT &#x27;Database&#x27;&gt;, False, &#x27;/project/appadmin/index&#x27;), (&lt;lazyT &#x27;Errors&#x27;&gt;, False, &#x27;/admin/default/errors/project&#x27;), (&lt;lazyT &#x27;About&#x27;&gt;, False, &#x27;/admin/default/about/project&#x27;)]</div></td></tr></table></div></td></tr><tr><td><div><table><tr><td><div>web2py.com</div></td></tr><tr><td><div>False</div></td></tr><tr><td><div>http://www.web2py.com</div></td></tr><tr><td><div>[(&lt;lazyT &#x27;Download&#x27;&gt;, False, &#x27;http://www.web2py.com/examples/default/download&#x27;), (&lt;lazyT &#x27;Support&#x27;&gt;, False, &#x27;http://www.web2py.com/examples/default/support&#x27;), (&lt;lazyT &#x27;Demo&#x27;&gt;, False, &#x27;http://web2py.com/demo_admin&#x27;), (&lt;lazyT &#x27;Quick Examples&#x27;&gt;, False, &#x27;http://web2py.com/examples/default/examples&#x27;), (&lt;lazyT &#x27;FAQ&#x27;&gt;, False, &#x27;http://web2py.com/AlterEgo&#x27;), (&lt;lazyT &#x27;Videos&#x27;&gt;, False, &#x27;http://www.web2py.com/examples/default/videos/&#x27;), (&lt;lazyT &#x27;Free Applications&#x27;&gt;, False, &#x27;http://web2py.com/appliances&#x27;), (&lt;lazyT &#x27;Plugins&#x27;&gt;, False, &#x27;http://web2py.com/plugins&#x27;), (&lt;lazyT &#x27;Layouts&#x27;&gt;, False, &#x27;http://web2py.com/layouts&#x27;), (&lt;lazyT &#x27;Recipes&#x27;&gt;, False, &#x27;http://web2pyslices.com/&#x27;), (&lt;lazyT &#x27;Semantic&#x27;&gt;, False, &#x27;http://web2py.com/semantic&#x27;)]</div></td></tr></table></div></td></tr><tr><td><div><table><tr><td><div>Documentation</div></td></tr><tr><td><div>False</div></td></tr><tr><td><div>http://www.web2py.com/book</div></td></tr><tr><td><div>[(&lt;lazyT &#x27;Preface&#x27;&gt;, False, &#x27;http://www.web2py.com/book/default/chapter/00&#x27;), (&lt;lazyT &#x27;Introduction&#x27;&gt;, False, &#x27;http://www.web2py.com/book/default/chapter/01&#x27;), (&lt;lazyT &#x27;Python&#x27;&gt;, False, &#x27;http://www.web2py.com/book/default/chapter/02&#x27;), (&lt;lazyT &#x27;Overview&#x27;&gt;, False, &#x27;http://www.web2py.com/book/default/chapter/03&#x27;), (&lt;lazyT &#x27;The Core&#x27;&gt;, False, &#x27;http://www.web2py.com/book/default/chapter/04&#x27;), (&lt;lazyT &#x27;The Views&#x27;&gt;, False, &#x27;http://www.web2py.com/book/default/chapter/05&#x27;), (&lt;lazyT &#x27;Database&#x27;&gt;, False, &#x27;http://www.web2py.com/book/default/chapter/06&#x27;), (&lt;lazyT &#x27;Forms and Validators&#x27;&gt;, False, &#x27;http://www.web2py.com/book/default/chapter/07&#x27;), (&lt;lazyT &#x27;Email and SMS&#x27;&gt;, False, &#x27;http://www.web2py.com/book/default/chapter/08&#x27;), (&lt;lazyT &#x27;Access Control&#x27;&gt;, False, &#x27;http://www.web2py.com/book/default/chapter/09&#x27;), (&lt;lazyT &#x27;Services&#x27;&gt;, False, &#x27;http://www.web2py.com/book/default/chapter/10&#x27;), (&lt;lazyT &#x27;Ajax Recipes&#x27;&gt;, False, &#x27;http://www.web2py.com/book/default/chapter/11&#x27;), (&lt;lazyT &#x27;Components and Plugins&#x27;&gt;, False, &#x27;http://www.web2py.com/book/default/chapter/12&#x27;), (&lt;lazyT &#x27;Deployment Recipes&#x27;&gt;, False, &#x27;http://www.web2py.com/book/default/chapter/13&#x27;), (&lt;lazyT &#x27;Other Recipes&#x27;&gt;, False, &#x27;http://www.web2py.com/book/default/chapter/14&#x27;), (&lt;lazyT &#x27;Buy this book&#x27;&gt;, False, &#x27;http://stores.lulu.com/web2py&#x27;)]</div></td></tr></table></div></td></tr><tr><td><div><table><tr><td><div>Community</div></td></tr><tr><td><div>False</div></td></tr><tr><td><div>None</div></td></tr><tr><td><div>[(&lt;lazyT &#x27;Groups&#x27;&gt;, False, &#x27;http://www.web2py.com/examples/default/usergroups&#x27;), (&lt;lazyT &#x27;Twitter&#x27;&gt;, False, &#x27;http://twitter.com/web2py&#x27;), (&lt;lazyT &#x27;Live Chat&#x27;&gt;, False, &#x27;http://webchat.freenode.net/?channels=web2py&#x27;)]</div></td></tr></table></div></td></tr><tr><td><div><table><tr><td><div>Plugins</div></td></tr><tr><td><div>False</div></td></tr><tr><td><div>None</div></td></tr><tr><td><div>[(&#x27;plugin_wiki&#x27;, False, &#x27;http://web2py.com/examples/default/download&#x27;), (&lt;lazyT &#x27;Other Plugins&#x27;&gt;, False, &#x27;http://web2py.com/plugins&#x27;), (&lt;lazyT &#x27;Layout Plugins&#x27;&gt;, False, &#x27;http://web2py.com/layouts&#x27;)]</div></td></tr></table></div></td></tr></table></div></td></tr></table></div></td></tr></table></div></td></tr><tr><td style="font-weight:bold;vertical-align:top">meta</td><td valign="top">:</td><td><div><table><tr><td style="font-weight:bold;vertical-align:top">author</td><td valign="top">:</td><td><div>Your Name &lt;you@example.com&gt;</div></td></tr><tr><td style="font-weight:bold;vertical-align:top">description</td><td valign="top">:</td><td><div>a cool new app</div></td></tr><tr><td style="font-weight:bold;vertical-align:top">generator</td><td valign="top">:</td><td><div>Web2py Web Framework</div></td></tr><tr><td style="font-weight:bold;vertical-align:top">keywords</td><td valign="top">:</td><td><div>web2py, python, framework</div></td></tr></table></div></td></tr><tr><td style="font-weight:bold;vertical-align:top">models_to_run</td><td valign="top">:</td><td><div><table><tr><td><div>^\\w+\\.py$</div></td></tr><tr><td><div>^default/\\w+\\.py$</div></td></tr><tr><td><div>^default/users/\\w+\\.py$</div></td></tr></table></div></td></tr><tr><td style="font-weight:bold;vertical-align:top">postprocessing</td><td valign="top">:</td><td><div><table></table></div></td></tr><tr><td style="font-weight:bold;vertical-align:top">session_cookie_expires</td><td valign="top">:</td><td><div>None</div></td></tr><tr><td style="font-weight:bold;vertical-align:top">session_data_name</td><td valign="top">:</td><td><div>session_data_project</div></td></tr><tr><td style="font-weight:bold;vertical-align:top">session_file</td><td valign="top">:</td><td><div>&lt;open file &#x27;/home/ashish/web2py/applications/project/sessions/127.0.0.1-3c86e50b-05aa-4b9f-8aad-2ce177e77686&#x27;, mode &#x27;rb+&#x27; at 0xad7bba18&gt;</div></td></tr><tr><td style="font-weight:bold;vertical-align:top">session_filename</td><td valign="top">:</td><td><div>/home/ashish/web2py/applications/project/sessions/127.0.0.1-3c86e50b-05aa-4b9f-8aad-2ce177e77686</div></td></tr><tr><td style="font-weight:bold;vertical-align:top">session_id</td><td valign="top">:</td><td><div>127.0.0.1-3c86e50b-05aa-4b9f-8aad-2ce177e77686</div></td></tr><tr><td style="font-weight:bold;vertical-align:top">session_id_name</td><td valign="top">:</td><td><div>session_id_project</div></td></tr><tr><td style="font-weight:bold;vertical-align:top">session_locked</td><td valign="top">:</td><td><div>True</div></td></tr><tr><td style="font-weight:bold;vertical-align:top">session_new</td><td valign="top">:</td><td><div>False</div></td></tr><tr><td style="font-weight:bold;vertical-align:top">session_storage_type</td><td valign="top">:</td><td><div>file</div></td></tr><tr><td style="font-weight:bold;vertical-align:top">status</td><td valign="top">:</td><td><div>200</div></td></tr><tr><td style="font-weight:bold;vertical-align:top">subtitle</td><td valign="top">:</td><td><div>customize me!</div></td></tr><tr><td style="font-weight:bold;vertical-align:top">title</td><td valign="top">:</td><td><div>Project</div></td></tr><tr><td style="font-weight:bold;vertical-align:top">view</td><td valign="top">:</td><td><div>default/users.html</div></td></tr></table></div>'
tRp296
sS'locals'
p297
(dp298
S'a'
S"('SELECT  maanesh FROM auth_user WHERE (auth_user.id = 24);',)"
p299
sS'self'
p300
S'<gluon.dal.SQLiteAdapter object>'
p301
sS'b'
g21
sS'command'
p302
S"'SELECT  maanesh FROM auth_user WHERE (auth_user.id = 24);'"
p303
sS't0'
p304
S'1365936191.032795'
p305
sssS'traceback'
p306
S'Traceback (most recent call last):\n  File "/home/ashish/web2py/gluon/restricted.py", line 212, in restricted\n    exec ccode in environment\n  File "/home/ashish/web2py/applications/project/controllers/default.py", line 281, in <module>\n  File "/home/ashish/web2py/gluon/globals.py", line 193, in <lambda>\n    self._caller = lambda f: f()\n  File "/home/ashish/web2py/applications/project/controllers/default.py", line 99, in users\n    l=db(db.auth_user.id==r[0][\'created_by\']).select(db.auth_user[r[0][\'created_by\']].first_name)\n  File "/home/ashish/web2py/gluon/dal.py", line 9769, in select\n    return adapter.select(self.query,fields,attributes)\n  File "/home/ashish/web2py/gluon/dal.py", line 2222, in select\n    return super(SQLiteAdapter, self).select(query, fields, attributes)\n  File "/home/ashish/web2py/gluon/dal.py", line 1680, in select\n    return self._select_aux(sql,fields,attributes)\n  File "/home/ashish/web2py/gluon/dal.py", line 1645, in _select_aux\n    self.execute(sql)\n  File "/home/ashish/web2py/gluon/dal.py", line 1758, in execute\n    return self.log_execute(*a, **b)\n  File "/home/ashish/web2py/gluon/dal.py", line 1752, in log_execute\n    ret = self.cursor.execute(*a, **b)\nOperationalError: no such column: maanesh\n'
p307
s.