(dp1
S'output'
p2
S"<type 'exceptions.ValueError'> invalid literal for int() with base 10: '|63|'"
p3
sS'layer'
p4
S'/home/ashish/web2py/applications/project/controllers/default.py'
p5
sS'code'
p6
S'import re\n# -*- coding: utf-8 -*-\n# this file is released under public domain and you can use without limitations\n\n#########################################################################\n## This is a samples controller\n## - index is the default action of any application\n## - user is required for authentication and authorization\n## - download is for downloading files uploaded in the db (does streaming)\n## - call exposes all registered services (none by default)\n#########################################################################\n\n\ndef index():\n    """\n    example action using the internationalization operator T and flash\n    rendered by views/default/index.html or views/generic.html\n\n    if you need a simple wiki simple replace the two lines below with:\n    return auth.wiki()\n    """\n#response.flash = T("Welcome to web2py!")\n#   return dict(message=T(\'Hello World\'))\n    redirect(URL(\'first\'))\n\ndef user():\n    """\n    exposes:\n    http://..../[app]/default/user/login\n    http://..../[app]/default/user/logout\n    http://..../[app]/default/user/register\n    http://..../[app]/default/user/profile\n    http://..../[app]/default/user/retrieve_password\n    http://..../[app]/default/user/change_password\n    use @auth.requires_login()\n        @auth.requires_membership(\'group name\')\n        @auth.requires_permission(\'read\',\'table name\',record_id)\n    to decorate functions that need access control\n    """\n    return dict(form=auth())\n\n\ndef download():\n    """\n    allows downloading of uploaded files\n    http://..../[app]/default/download/[filename]\n    """\n    return response.download(request, db)\n\n\ndef call():\n    """\n    exposes services. for example:\n    http://..../[app]/default/call/jsonrpc\n    decorate with @services.jsonrpc the functions to expose\n    supports xml, json, xmlrpc, jsonrpc, amfrpc, rss, csv\n    """\n    return service()\n\n@auth.requires_signature()\ndef data():\n    """\n    http://..../[app]/default/data/tables\n    http://..../[app]/default/data/create/[table]\n    http://..../[app]/default/data/read/[table]/[id]\n    http://..../[app]/default/data/update/[table]/[id]\n    http://..../[app]/default/data/delete/[table]/[id]\n    http://..../[app]/default/data/select/[table]\n    http://..../[app]/default/data/search/[table]\n    but URLs must be signed, i.e. linked with\n      A(\'table\',_href=URL(\'data/tables\',user_signature=True))\n    or with the signed load operator\n      LOAD(\'default\',\'data.load\',args=\'tables\',ajax=True,user_signature=True)\n    """\n    return dict(form=crud())\n\n@auth.requires_login()\ndef upload():\n    \t\tdb.project.fl.default=0\n\t\tform=SQLFORM(db.project)\n\t\tif form.process().accepted:\n\t\t\tresponse.flash=\'your project is added\'\n\t\treturn dict(form=form)\ndef first():\n#   \tflag=0\n#\tif request.args(0,cast=int)==1:\n#\t\tflag=1\n    \tif auth.user:\n\t\tredirect(\'users\')\n\tcat=db().select(db.project.ALL)\n\tl=db(db.project.id>0).select(db.project.ALL,orderby=~db.project.count_download)\n    \tco=db(db.project.id>0).select(db.project.ALL,orderby=~db.project.count_comment)\n\trt=db(db.project.id>0).select(db.project.ALL,orderby=~db.project.count_rate)\n\treturn dict(cat=cat,l=l,co=co,rt=rt)\ndef users():\n    \tp_share={}\n    \tshare=db(db.collaborators.collaborator==db.auth_user[auth.user_id].email).select(db.collaborators.ALL)\n\tfor i in range(0,len(share)):\n\t    r=db(db.project.id==share[i][\'project_id\']).select(db.project.ALL)\n\t    l=db(db.auth_user.id==r[0][\'created_by\']).select(db.auth_user.first_name)\n\t    p_share[l[0][\'first_name\']]=r\n    \tshw={}\n    \tgrid={}\n\tlis={}\n\tfrequest=db(db.friend.send_to==auth.user_id).select(db.friend.ALL)\n\tffrequest=db(db.friend.send_by==auth.user_id).select(db.friend.ALL)\n    \tfor i in frequest:\n\t\tif i[\'confirm\']==0:\n\t\t\tname=db(db.auth_user.id==i[\'send_by\']).select(db.auth_user.username)\n\t\t\tlis[name[0][\'username\']]=i[\'send_by\']\n\t\telse:\n\t\t\ttoshow=db(db.auth_user.id==i[\'send_by\']).select(db.auth_user.ALL)\n#shw.append(toshow[0][\'username\'])\n\t\t\tshw[i[\'send_by\']]=toshow[0][\'username\']\n\tfor i in ffrequest:\n\t\tif i[\'confirm\']==1:\n\t\t\ttosh=db(db.auth_user.id==i[\'send_to\']).select(db.auth_user.ALL)\n#\t\t\tshw.append(tosh[0])\n\t\t\tshw[i[\'send_to\']]=tosh[0][\'username\']\n    \tif auth.user:\n\t\tflag=1\n#grid=SQLFORM.smartgrid(db.project,a,csv=False,field_id=None)\n\t\tgrid=db(db.project.created_by==auth.user_id).select(db.project.ALL)\n\tif request.vars.upload:\n\t\tredirect(URL(\'upload\'))\n    \tr=[]\n\treturn dict(shw=shw,lis=lis,frequest=frequest,grid=grid,r=r,p_share=p_share)\n\ndef show():\n    temp=request.args(0,cast=int)\n    l=db(db.project.id==temp).select(db.project.category)\n    projct=db(db.project.category==l[0][\'category\']).select(db.project.ALL)\n    return dict(l=l,projct=projct)\n\ndef user1():\n    temp=request.args(0,cast=int)\n    frm={}\n    downl=db(db.project.id==temp).select(db.project.project)\n    down=downl[0][\'project\']\n    nae=db(db.project.id==temp).select(db.project.Name)\n    name=nae[0][\'Name\']\n    if auth.user:\t\n\t   db.ratecomment.email.readable=False\n\t   db.ratecomment.email.writable=False\n    \t   r=db(db.project.id==temp).select(db.project.created_by)\n    \t   l=r[0][\'created_by\']\n    \t   if l!=auth.user_id:\n   \t\t\tflag=1\n   \t   else:\n          \t\tflag=2\n    else:\n    \tflag=0\n    if flag==1:\n    \tdb.ratecomment.created_by.default=auth.user_id\n    form=SQLFORM(db.ratecomment)\n    db.ratecomment.project_id.default=temp\n    if form.process().accepted:\n\tresponse.flash=\'your comment is posted\'\n    \tif flag!=2:\n\t\tmyset2=db(db.project.id==temp)\t\n\t\tcom=db(db.project.id==temp).select(db.project.count_comment)\n\t\tcont=com[0][\'count_comment\']\n\t\tr=db(db.project.id==temp).select(db.project.count_rate)\n\t\trt=r[0][\'count_rate\']\n    \t\trat=((rt*(cont-1))+int(request.vars.rate))/(cont)\n\t\tmyset2.update(count_rate=rat)\n\t\tmyset2.update(count_comment=cont+1)\n    comment=db(db.ratecomment.project_id==temp).select(db.ratecomment.ALL)\n    return dict(temp=temp,down=down,name=name,flag=flag,form=form,comment=comment)\ndef download():\n\tmyset=db(db.project.id==request.args[1])\n\tc=db(db.project.id==request.args[1]).select(db.project.count_download)\n    \tcn=c[0][\'count_download\']\n\tmyset.update(count_download=cn+1)\n    \tredirect(URL(\'down\',args=request.args[0]))\ndef down():\n    \treturn response.download(request,db)\ndef profile():\n    \treturn dict(form=auth.profile())\ndef search():\n    \ta=request.vars.search\n\tlis=[]\n\tnam=db(db.project.id>0).select(db.project.ALL)\n\tfor i in range(0,len(nam)):\n\t    l=re.search(a,nam[i][\'Name\'])\n\t    lp=re.search(a,nam[i][\'description\'])\n\t    if l:\n\t    \tlis.append(nam[i])\n\t    if lp:\n\t\tlis.append(nam[i])\n\treturn dict(lis=lis)\ndef search2():\n    a=request.vars.search\n    nam=[]\n    name=db(db.auth_user.id>0).select(db.auth_user.ALL)\n    l=len(name)\n    for i in range(0,l):\n\tmat=re.search(a,name[i][\'first_name\'])\n\tif mat:\n\t   nam.append(name[i])\n    return dict(nam=nam)\ndef first2():\n    \tflag=1\n    \ttemp=request.args(0,cast=int)\n    \tif auth.user_id==temp:\n\t    redirect(URL(\'first\'))\n\tsendto=db((db.friend.send_to==temp)&(db.friend.send_to!=db.friend.send_by)).select(db.friend.ALL)\n\tsendauth=db((db.friend.send_to==auth.user_id)&(db.friend.send_to!=db.friend.send_by)).select(db.friend.ALL)\n\tfor i in range(len(sendauth)):\n\t    if sendauth[i][\'send_by\']==temp:\n\t    \tif sendauth[i][\'confirm\']==1:\n\t    \t\tflag=3\n\t    \t\tbreak\n\t    \telse:\n\t    \t\tflag=2\n\t    \t\tbreak\n\tfor i in range(len(sendto)):\n\t    if sendto[i][\'send_by\']==auth.user_id:\n\t    \tif sendto[i][\'confirm\']==1:\n\t    \t\tflag=3\n\t    \t\tbreak\n\t    \telse:\n\t    \t\tflag=2\n\t    \t\tbreak\t\n    \tproj=db(db.project.created_by==temp).select(db.project.ALL)\n\tuse=db(db.auth_user.id==temp).select(db.auth_user.ALL)\n\treturn dict(sendauth=sendauth,use=use,flag=flag,proj=proj,temp=temp)\ndef insert():\n    l1=request.args(0,cast=int)\n    db.friend.insert(send_to=l1,send_by=auth.user_id,confirm=0)\n    redirect(URL(\'first2\',args=l1))\ndef confirm():\n    t=request.args(0,cast=int)\n    my=db((db.friend.send_by==t)&(db.friend.send_to==auth.user_id))\n    my.update(confirm=1)\n    response.flash=\'friend request accepted\'\n    redirect(URL(first))\ndef reject():\n   \tt=request.args(0,cast=int)\t\n    \tdb((db.friend.send_by==t)&(db.friend.send_to==auth.user_id)).delete()\n\tredirect(URL(first))\ndef dev():\n    temp=request.args(0,cast=int)\n    col=db(db.collaborators.project_id==temp).select(db.collaborators.ALL)\n    name=db(db.project.id==temp).select(db.project.Name)\n    proj=db(db.project.id==temp).select(db.project.ALL)\n    return dict(proj=proj,name=name,col=col)\ndef delete():\n    temp=request.args(0,cast=int)\n    db(db.project.id==temp).delete()\n    redirect(URL(first))\ndef add():\n\ttemp=request.args(0,cast=int)\n\tdic=[]\n\talr=db(db.collaborators.project_id==temp).select(db.collaborators.collaborator)\n\tfor i in alr:\n\t\tdic.append(i[\'collaborator\'])\n\tlis=[]\n\tfrid=db(((db.friend.send_to==auth.user_id)|(db.friend.send_by==auth.user_id))&(db.friend.confirm==1)).select(db.friend.ALL)\t\n\tfor i in frid:\n\t\tif i[\'send_to\']==auth.user_id :\n\t\t\tc=db.auth_user[i[\'send_by\']].email\n\t\t\tif c  not in dic:\n\t\t\t\tlis.append(db.auth_user[i[\'send_by\']].email)\n\t\telif i[\'send_by\']==auth.user_id:\n\t\t\tc=db.auth_user[i[\'send_to\']].email\n\t\t\tif c  not in dic:\n\t\t\t\tlis.append(db.auth_user[i[\'send_to\']].email)\n\tform=SQLFORM.factory(\n\t    Field(\'Choose_friend\',requires=IS_IN_SET((lis)))\n\t    )\n\tif form.process().accepted:\n\t\tdb.collaborators.insert(project_id=temp,collaborator=request.vars.Choose_friend)\n\t\tredirect(URL(add,args=temp))\n\treturn dict(form=form)\ndef remove():\n    \ttemp=request.args(0,cast=int)\n\ttemp1=request.args(1,cast=int)\n    \tdb(db.collaborators.id==temp).delete()\n\tredirect(URL(dev,args=temp1))\ndef modify():\n    \ttemp=request.args(0,cast=int)\n\tshw=db((db.folder.vers>0)&(db.folder.project_id==temp)&(db.project.fl==1)).select(db.folder.ALL)\n\tcur=db(db.folder.project_id==temp).select(db.folder.vers)\n\tform=SQLFORM(db.folder)\n\tif form.process().accepted:\n\t    \tdb.folder.project_id.default=temp\n\treturn dict(form=form,shw=shw,cur=cur)\n\t\n\nresponse._vars=response._caller(modify)\n'
p7
sS'snapshot'
p8
(dp9
S'exception'
p10
(dp11
S'__hash__'
p12
S"<method-wrapper '__hash__' of exceptions.ValueError object>"
p13
sS'__setattr__'
p14
S"<method-wrapper '__setattr__' of exceptions.ValueError object>"
p15
sS'__reduce_ex__'
p16
S'<built-in method __reduce_ex__ of exceptions.ValueError object>'
p17
sS'__getslice__'
p18
S"<method-wrapper '__getslice__' of exceptions.ValueError object>"
p19
sS'__getitem__'
p20
S"<method-wrapper '__getitem__' of exceptions.ValueError object>"
p21
sS'__setstate__'
p22
S'<built-in method __setstate__ of exceptions.ValueError object>'
p23
sS'__reduce__'
p24
S'<built-in method __reduce__ of exceptions.ValueError object>'
p25
sS'__str__'
p26
S"<method-wrapper '__str__' of exceptions.ValueError object>"
p27
sS'__format__'
p28
S'<built-in method __format__ of exceptions.ValueError object>'
p29
sS'__getattribute__'
p30
S"<method-wrapper '__getattribute__' of exceptions.ValueError object>"
p31
sS'__class__'
p32
S"<type 'exceptions.ValueError'>"
p33
sS'__unicode__'
p34
S'<built-in method __unicode__ of exceptions.ValueError object>'
p35
sS'__delattr__'
p36
S"<method-wrapper '__delattr__' of exceptions.ValueError object>"
p37
sS'__subclasshook__'
p38
S'<built-in method __subclasshook__ of type object>'
p39
sS'__repr__'
p40
S"<method-wrapper '__repr__' of exceptions.ValueError object>"
p41
sS'args'
p42
S'("invalid literal for int() with base 10: \'|63|\'",)'
p43
sS'__dict__'
p44
S'{}'
p45
sS'__sizeof__'
p46
S'<built-in method __sizeof__ of exceptions.ValueError object>'
p47
sS'__doc__'
p48
S"'Inappropriate argument value (of correct type).'"
p49
sS'__init__'
p50
S"<method-wrapper '__init__' of exceptions.ValueError object>"
p51
sS'__new__'
p52
S'<built-in method __new__ of type object>'
p53
ssS'evalue'
p54
S"invalid literal for int() with base 10: '|63|'"
p55
sS'request'
p56
cgluon.html
XML_unpickle
p57
(S's\xb5_\x00\x00<div><table><tr><td style="font-weight:bold;vertical-align:top">ajax</td><td valign="top">:</td><td><div>False</div></td></tr><tr><td style="font-weight:bold;vertical-align:top">application</td><td valign="top">:</td><td><div>project</div></td></tr><tr><td style="font-weight:bold;vertical-align:top">args</td><td valign="top">:</td><td><div><table><tr><td><div>63</div></td></tr></table></div></td></tr><tr><td style="font-weight:bold;vertical-align:top">body</td><td valign="top">:</td><td><div>&lt;open file &#x27;&lt;fdopen&gt;&#x27;, mode &#x27;w+b&#x27; at 0xad31a7b0&gt;</div></td></tr><tr><td style="font-weight:bold;vertical-align:top">cid</td><td valign="top">:</td><td><div>None</div></td></tr><tr><td style="font-weight:bold;vertical-align:top">client</td><td valign="top">:</td><td><div>127.0.0.1</div></td></tr><tr><td style="font-weight:bold;vertical-align:top">controller</td><td valign="top">:</td><td><div>default</div></td></tr><tr><td style="font-weight:bold;vertical-align:top">cookies</td><td valign="top">:</td><td><div><table><tr><td style="font-weight:bold;vertical-align:top">session_id_admin</td><td valign="top">:</td><td><div>127.0.0.1-ac2603db-f376-4435-a741-89c4a2cfb513<table><tr><td style="font-weight:bold;vertical-align:top">comment</td><td valign="top">:</td><td><div></div></td></tr><tr><td style="font-weight:bold;vertical-align:top">domain</td><td valign="top">:</td><td><div></div></td></tr><tr><td style="font-weight:bold;vertical-align:top">expires</td><td valign="top">:</td><td><div></div></td></tr><tr><td style="font-weight:bold;vertical-align:top">httponly</td><td valign="top">:</td><td><div></div></td></tr><tr><td style="font-weight:bold;vertical-align:top">max-age</td><td valign="top">:</td><td><div></div></td></tr><tr><td style="font-weight:bold;vertical-align:top">path</td><td valign="top">:</td><td><div></div></td></tr><tr><td style="font-weight:bold;vertical-align:top">secure</td><td valign="top">:</td><td><div></div></td></tr><tr><td style="font-weight:bold;vertical-align:top">version</td><td valign="top">:</td><td><div></div></td></tr></table></div></td></tr><tr><td style="font-weight:bold;vertical-align:top">session_id_project</td><td valign="top">:</td><td><div>127.0.0.1-023dc7a1-7109-4d74-b767-d6a61443d54c<table><tr><td style="font-weight:bold;vertical-align:top">comment</td><td valign="top">:</td><td><div></div></td></tr><tr><td style="font-weight:bold;vertical-align:top">domain</td><td valign="top">:</td><td><div></div></td></tr><tr><td style="font-weight:bold;vertical-align:top">expires</td><td valign="top">:</td><td><div></div></td></tr><tr><td style="font-weight:bold;vertical-align:top">httponly</td><td valign="top">:</td><td><div></div></td></tr><tr><td style="font-weight:bold;vertical-align:top">max-age</td><td valign="top">:</td><td><div></div></td></tr><tr><td style="font-weight:bold;vertical-align:top">path</td><td valign="top">:</td><td><div></div></td></tr><tr><td style="font-weight:bold;vertical-align:top">secure</td><td valign="top">:</td><td><div></div></td></tr><tr><td style="font-weight:bold;vertical-align:top">version</td><td valign="top">:</td><td><div></div></td></tr></table></div></td></tr><tr><td style="font-weight:bold;vertical-align:top">session_id_welcome</td><td valign="top">:</td><td><div>127.0.0.1-6b0e8c2b-80d4-48e8-b2c5-fe392ae74c85<table><tr><td style="font-weight:bold;vertical-align:top">comment</td><td valign="top">:</td><td><div></div></td></tr><tr><td style="font-weight:bold;vertical-align:top">domain</td><td valign="top">:</td><td><div></div></td></tr><tr><td style="font-weight:bold;vertical-align:top">expires</td><td valign="top">:</td><td><div></div></td></tr><tr><td style="font-weight:bold;vertical-align:top">httponly</td><td valign="top">:</td><td><div></div></td></tr><tr><td style="font-weight:bold;vertical-align:top">max-age</td><td valign="top">:</td><td><div></div></td></tr><tr><td style="font-weight:bold;vertical-align:top">path</td><td valign="top">:</td><td><div></div></td></tr><tr><td style="font-weight:bold;vertical-align:top">secure</td><td valign="top">:</td><td><div></div></td></tr><tr><td style="font-weight:bold;vertical-align:top">version</td><td valign="top">:</td><td><div></div></td></tr></table></div></td></tr></table></div></td></tr><tr><td style="font-weight:bold;vertical-align:top">env</td><td valign="top">:</td><td><div><table><tr><td style="font-weight:bold;vertical-align:top">app_folders</td><td valign="top">:</td><td><div>set([&#x27;/home/ashish/web2py/applications/welcome/&#x27;, &#x27;/home/ashish/web2py/applications/project/&#x27;, &#x27;/home/ashish/web2py/applications/admin/&#x27;])</div></td></tr><tr><td style="font-weight:bold;vertical-align:top">applications_parent</td><td valign="top">:</td><td><div>/home/ashish/web2py</div></td></tr><tr><td style="font-weight:bold;vertical-align:top">cmd_args</td><td valign="top">:</td><td><div><table></table></div></td></tr><tr><td style="font-weight:bold;vertical-align:top">cmd_options</td><td valign="top">:</td><td><div>&lt;Values at 0x952eb8c: {&#x27;verbose&#x27;: False, &#x27;ip&#x27;: &#x27;127.0.0.1&#x27;, &#x27;with_scheduler&#x27;: False, &#x27;ips&#x27;: [], &#x27;shutdown_timeout&#x27;: 5, &#x27;taskbar&#x27;: False, &#x27;port&#x27;: 8000, &#x27;maxthreads&#x27;: None, &#x27;softcron&#x27;: False, &#x27;server_name&#x27;: &#x27;ashish-PC&#x27;, &#x27;bpython&#x27;: False, &#x27;nogui&#x27;: False, &#x27;pid_filename&#x27;: &#x27;httpserver.pid&#x27;, &#x27;extcron&#x27;: False, &#x27;runcron&#x27;: False, &#x27;run_system_tests&#x27;: False, &#x27;test&#x27;: None, &#x27;folder&#x27;: &#x27;/home/ashish/web2py&#x27;, &#x27;config&#x27;: &#x27;&#x27;, &#x27;import_models&#x27;: False, &#x27;winservice&#x27;: &#x27;&#x27;, &#x27;shell&#x27;: None, &#x27;run&#x27;: &#x27;&#x27;, &#x27;log_filename&#x27;: &#x27;httpserver.log&#x27;, &#x27;debuglevel&#x27;: 30, &#x27;args&#x27;: [&#x27;&#x27;], &#x27;socket_timeout&#x27;: 5, &#x27;ssl_ca_certificate&#x27;: None, &#x27;scheduler&#x27;: None, &#x27;profiler_filename&#x27;: None, &#x27;ssl_private_key&#x27;: &#x27;&#x27;, &#x27;scheduler_groups&#x27;: None, &#x27;password&#x27;: &#x27;&lt;ask&gt;&#x27;, &#x27;request_queue_size&#x27;: 5, &#x27;ssl_certificate&#x27;: &#x27;&#x27;, &#x27;cronjob&#x27;: False, &#x27;numthreads&#x27;: None, &#x27;quiet&#x27;: False, &#x27;interfaces&#x27;: None, &#x27;minthreads&#x27;: None, &#x27;timeout&#x27;: 10, &#x27;plain&#x27;: False, &#x27;nobanner&#x27;: False}&gt;</div></td></tr><tr><td style="font-weight:bold;vertical-align:top">content_length</td><td valign="top">:</td><td><div>1009</div></td></tr><tr><td style="font-weight:bold;vertical-align:top">content_type</td><td valign="top">:</td><td><div>multipart/form-data; boundary=---------------------------705073675252919191734668815</div></td></tr><tr><td style="font-weight:bold;vertical-align:top">db_sessions</td><td valign="top">:</td><td><div>set([])</div></td></tr><tr><td style="font-weight:bold;vertical-align:top">debugging</td><td valign="top">:</td><td><div>False</div></td></tr><tr><td style="font-weight:bold;vertical-align:top">gluon_parent</td><td valign="top">:</td><td><div>/home/ashish/web2py</div></td></tr><tr><td style="font-weight:bold;vertical-align:top">http_accept</td><td valign="top">:</td><td><div>text/html,application/xhtml+xml,application/xml;q=0.9,*/*;q=0.8</div></td></tr><tr><td style="font-weight:bold;vertical-align:top">http_accept_encoding</td><td valign="top">:</td><td><div>gzip, deflate</div></td></tr><tr><td style="font-weight:bold;vertical-align:top">http_accept_language</td><td valign="top">:</td><td><div>en-US,en;q=0.5</div></td></tr><tr><td style="font-weight:bold;vertical-align:top">http_connection</td><td valign="top">:</td><td><div>keep-alive</div></td></tr><tr><td style="font-weight:bold;vertical-align:top">http_content_length</td><td valign="top">:</td><td><div>1009</div></td></tr><tr><td style="font-weight:bold;vertical-align:top">http_content_type</td><td valign="top">:</td><td><div>multipart/form-data; boundary=---------------------------705073675252919191734668815</div></td></tr><tr><td style="font-weight:bold;vertical-align:top">http_cookie</td><td valign="top">:</td><td><div>session_id_welcome=127.0.0.1-6b0e8c2b-80d4-48e8-b2c5-fe392ae74c85; session_id_admin=127.0.0.1-ac2603db-f376-4435-a741-89c4a2cfb513; session_id_project=127.0.0.1-023dc7a1-7109-4d74-b767-d6a61443d54c</div></td></tr><tr><td style="font-weight:bold;vertical-align:top">http_host</td><td valign="top">:</td><td><div>127.0.0.1:8000</div></td></tr><tr><td style="font-weight:bold;vertical-align:top">http_referer</td><td valign="top">:</td><td><div>http://127.0.0.1:8000/project/default/modify/63</div></td></tr><tr><td style="font-weight:bold;vertical-align:top">http_user_agent</td><td valign="top">:</td><td><div>Mozilla/5.0 (X11; Ubuntu; Linux i686; rv:18.0) Gecko/20100101 Firefox/18.0</div></td></tr><tr><td style="font-weight:bold;vertical-align:top">is_jython</td><td valign="top">:</td><td><div>False</div></td></tr><tr><td style="font-weight:bold;vertical-align:top">is_pypy</td><td valign="top">:</td><td><div>False</div></td></tr><tr><td style="font-weight:bold;vertical-align:top">local_hosts</td><td valign="top">:</td><td><div><table><tr><td><div>::1</div></td></tr><tr><td><div>127.0.1.1</div></td></tr><tr><td><div>::ffff:127.0.0.1</div></td></tr><tr><td><div>127.0.0.1</div></td></tr><tr><td><div>ashish-PC</div></td></tr></table></div></td></tr><tr><td style="font-weight:bold;vertical-align:top">path_info</td><td valign="top">:</td><td><div>/project/default/modify/63</div></td></tr><tr><td style="font-weight:bold;vertical-align:top">query_string</td><td valign="top">:</td><td><div></div></td></tr><tr><td style="font-weight:bold;vertical-align:top">remote_addr</td><td valign="top">:</td><td><div>127.0.0.1</div></td></tr><tr><td style="font-weight:bold;vertical-align:top">remote_port</td><td valign="top">:</td><td><div>59985</div></td></tr><tr><td style="font-weight:bold;vertical-align:top">request_method</td><td valign="top">:</td><td><div>POST</div></td></tr><tr><td style="font-weight:bold;vertical-align:top">request_uri</td><td valign="top">:</td><td><div>/project/default/modify/63</div></td></tr><tr><td style="font-weight:bold;vertical-align:top">script_name</td><td valign="top">:</td><td><div></div></td></tr><tr><td style="font-weight:bold;vertical-align:top">server_name</td><td valign="top">:</td><td><div>ashish-PC</div></td></tr><tr><td style="font-weight:bold;vertical-align:top">server_port</td><td valign="top">:</td><td><div>8000</div></td></tr><tr><td style="font-weight:bold;vertical-align:top">server_protocol</td><td valign="top">:</td><td><div>HTTP/1.1</div></td></tr><tr><td style="font-weight:bold;vertical-align:top">server_software</td><td valign="top">:</td><td><div>Rocket 1.2.6</div></td></tr><tr><td style="font-weight:bold;vertical-align:top">web2py_path</td><td valign="top">:</td><td><div>/home/ashish/web2py</div></td></tr><tr><td style="font-weight:bold;vertical-align:top">web2py_version</td><td valign="top">:</td><td><div><table><tr><td><div>2</div></td></tr><tr><td><div>4</div></td></tr><tr><td><div>2</div></td></tr><tr><td><div>stable</div></td></tr><tr><td><div>datetime.datetime(2013, 3, 4, 3, 26, 21)</div></td></tr></table></div></td></tr><tr><td style="font-weight:bold;vertical-align:top">wsgi_errors</td><td valign="top">:</td><td><div>&lt;open file &#x27;&lt;stderr&gt;&#x27;, mode &#x27;w&#x27; at 0xb72bd0d0&gt;</div></td></tr><tr><td style="font-weight:bold;vertical-align:top">wsgi_file_wrapper</td><td valign="top">:</td><td><div>&lt;class wsgiref.util.FileWrapper at 0x94d2e3c&gt;</div></td></tr><tr><td style="font-weight:bold;vertical-align:top">wsgi_input</td><td valign="top">:</td><td><div>&lt;socket._fileobject object at 0xb38d46ac&gt;</div></td></tr><tr><td style="font-weight:bold;vertical-align:top">wsgi_multiprocess</td><td valign="top">:</td><td><div>False</div></td></tr><tr><td style="font-weight:bold;vertical-align:top">wsgi_multithread</td><td valign="top">:</td><td><div>True</div></td></tr><tr><td style="font-weight:bold;vertical-align:top">wsgi_run_once</td><td valign="top">:</td><td><div>False</div></td></tr><tr><td style="font-weight:bold;vertical-align:top">wsgi_url_scheme</td><td valign="top">:</td><td><div>http</div></td></tr><tr><td style="font-weight:bold;vertical-align:top">wsgi_version</td><td valign="top">:</td><td><div><table><tr><td><div>1</div></td></tr><tr><td><div>0</div></td></tr></table></div></td></tr></table></div></td></tr><tr><td style="font-weight:bold;vertical-align:top">extension</td><td valign="top">:</td><td><div>html</div></td></tr><tr><td style="font-weight:bold;vertical-align:top">folder</td><td valign="top">:</td><td><div>/home/ashish/web2py/applications/project/</div></td></tr><tr><td style="font-weight:bold;vertical-align:top">function</td><td valign="top">:</td><td><div>modify</div></td></tr><tr><td style="font-weight:bold;vertical-align:top">get_vars</td><td valign="top">:</td><td><div><table></table></div></td></tr><tr><td style="font-weight:bold;vertical-align:top">global_settings</td><td valign="top">:</td><td><div><table><tr><td style="font-weight:bold;vertical-align:top">app_folders</td><td valign="top">:</td><td><div>set([&#x27;/home/ashish/web2py/applications/welcome/&#x27;, &#x27;/home/ashish/web2py/applications/project/&#x27;, &#x27;/home/ashish/web2py/applications/admin/&#x27;])</div></td></tr><tr><td style="font-weight:bold;vertical-align:top">applications_parent</td><td valign="top">:</td><td><div>/home/ashish/web2py</div></td></tr><tr><td style="font-weight:bold;vertical-align:top">cmd_args</td><td valign="top">:</td><td><div><table></table></div></td></tr><tr><td style="font-weight:bold;vertical-align:top">cmd_options</td><td valign="top">:</td><td><div>&lt;Values at 0x952eb8c: {&#x27;verbose&#x27;: False, &#x27;ip&#x27;: &#x27;127.0.0.1&#x27;, &#x27;with_scheduler&#x27;: False, &#x27;ips&#x27;: [], &#x27;shutdown_timeout&#x27;: 5, &#x27;taskbar&#x27;: False, &#x27;port&#x27;: 8000, &#x27;maxthreads&#x27;: None, &#x27;softcron&#x27;: False, &#x27;server_name&#x27;: &#x27;ashish-PC&#x27;, &#x27;bpython&#x27;: False, &#x27;nogui&#x27;: False, &#x27;pid_filename&#x27;: &#x27;httpserver.pid&#x27;, &#x27;extcron&#x27;: False, &#x27;runcron&#x27;: False, &#x27;run_system_tests&#x27;: False, &#x27;test&#x27;: None, &#x27;folder&#x27;: &#x27;/home/ashish/web2py&#x27;, &#x27;config&#x27;: &#x27;&#x27;, &#x27;import_models&#x27;: False, &#x27;winservice&#x27;: &#x27;&#x27;, &#x27;shell&#x27;: None, &#x27;run&#x27;: &#x27;&#x27;, &#x27;log_filename&#x27;: &#x27;httpserver.log&#x27;, &#x27;debuglevel&#x27;: 30, &#x27;args&#x27;: [&#x27;&#x27;], &#x27;socket_timeout&#x27;: 5, &#x27;ssl_ca_certificate&#x27;: None, &#x27;scheduler&#x27;: None, &#x27;profiler_filename&#x27;: None, &#x27;ssl_private_key&#x27;: &#x27;&#x27;, &#x27;scheduler_groups&#x27;: None, &#x27;password&#x27;: &#x27;&lt;ask&gt;&#x27;, &#x27;request_queue_size&#x27;: 5, &#x27;ssl_certificate&#x27;: &#x27;&#x27;, &#x27;cronjob&#x27;: False, &#x27;numthreads&#x27;: None, &#x27;quiet&#x27;: False, &#x27;interfaces&#x27;: None, &#x27;minthreads&#x27;: None, &#x27;timeout&#x27;: 10, &#x27;plain&#x27;: False, &#x27;nobanner&#x27;: False}&gt;</div></td></tr><tr><td style="font-weight:bold;vertical-align:top">db_sessions</td><td valign="top">:</td><td><div>set([])</div></td></tr><tr><td style="font-weight:bold;vertical-align:top">debugging</td><td valign="top">:</td><td><div>False</div></td></tr><tr><td style="font-weight:bold;vertical-align:top">gluon_parent</td><td valign="top">:</td><td><div>/home/ashish/web2py</div></td></tr><tr><td style="font-weight:bold;vertical-align:top">is_jython</td><td valign="top">:</td><td><div>False</div></td></tr><tr><td style="font-weight:bold;vertical-align:top">is_pypy</td><td valign="top">:</td><td><div>False</div></td></tr><tr><td style="font-weight:bold;vertical-align:top">local_hosts</td><td valign="top">:</td><td><div><table><tr><td><div>::1</div></td></tr><tr><td><div>127.0.1.1</div></td></tr><tr><td><div>::ffff:127.0.0.1</div></td></tr><tr><td><div>127.0.0.1</div></td></tr><tr><td><div>ashish-PC</div></td></tr></table></div></td></tr><tr><td style="font-weight:bold;vertical-align:top">web2py_version</td><td valign="top">:</td><td><div><table><tr><td><div>2</div></td></tr><tr><td><div>4</div></td></tr><tr><td><div>2</div></td></tr><tr><td><div>stable</div></td></tr><tr><td><div>datetime.datetime(2013, 3, 4, 3, 26, 21)</div></td></tr></table></div></td></tr></table></div></td></tr><tr><td style="font-weight:bold;vertical-align:top">is_https</td><td valign="top">:</td><td><div>False</div></td></tr><tr><td style="font-weight:bold;vertical-align:top">is_local</td><td valign="top">:</td><td><div>True</div></td></tr><tr><td style="font-weight:bold;vertical-align:top">is_restful</td><td valign="top">:</td><td><div>False</div></td></tr><tr><td style="font-weight:bold;vertical-align:top">now</td><td valign="top">:</td><td><div>datetime.datetime(2013, 4, 14, 22, 53, 11, 535698)</div></td></tr><tr><td style="font-weight:bold;vertical-align:top">post_vars</td><td valign="top">:</td><td><div><table><tr><td style="font-weight:bold;vertical-align:top">description</td><td valign="top">:</td><td><div></div></td></tr><tr><td style="font-weight:bold;vertical-align:top">project</td><td valign="top">:</td><td><div>#include&lt;stdio.h&gt;\n#include&lt;math.h&gt;\nint main()\n{\n    int a[100][100],p,l,i,j,test,b,d,n,k;\n    scanf(&quot;%d&quot;,&amp;test);\n    while(test--)\n    {\n\tscanf(&quot;%d%d&quot;,&amp;n,&amp;k);\n\td=(n-1)/2;\n\tl=d;\n\tp=pow(2,d);\n\tfor(i=0;i&lt;p;i++)\n\t{\n\t    \tb=i;\n\t\tfor(j=l-1;j&gt;=0;j--)\n\t\t{\n\t\t\ta[i][j]=(b&amp;1);\n\t\t\tb=b&gt;&gt;1;\n\t\t}\n\t}\n\tfor(i=0;i&lt;p;i++)\n\t{\n\t    for(j=0;j&lt;l;j++)\n\t    {\n\t\tprintf(&quot;%d &quot;,a[i][j]);\n\t    }\n\t    printf(&quot;\\n&quot;);\n\t}\n    }\n    return 0;\n}\nFieldStorage object</div></td></tr></table></div></td></tr><tr><td style="font-weight:bold;vertical-align:top">raw_args</td><td valign="top">:</td><td><div>63</div></td></tr><tr><td style="font-weight:bold;vertical-align:top">raw_extension</td><td valign="top">:</td><td><div>None</div></td></tr><tr><td style="font-weight:bold;vertical-align:top">url</td><td valign="top">:</td><td><div>/project/default/modify/63</div></td></tr><tr><td style="font-weight:bold;vertical-align:top">utcnow</td><td valign="top">:</td><td><div>datetime.datetime(2013, 4, 14, 17, 23, 11, 535740)</div></td></tr><tr><td style="font-weight:bold;vertical-align:top">uuid</td><td valign="top">:</td><td><div>project/127.0.0.1.2013-04-14.22-53-11.0bcf1782-ba61-4fed-a558-4175520b2fd1</div></td></tr><tr><td style="font-weight:bold;vertical-align:top">vars</td><td valign="top">:</td><td><div><table><tr><td style="font-weight:bold;vertical-align:top">description</td><td valign="top">:</td><td><div></div></td></tr><tr><td style="font-weight:bold;vertical-align:top">project</td><td valign="top">:</td><td><div>#include&lt;stdio.h&gt;\n#include&lt;math.h&gt;\nint main()\n{\n    int a[100][100],p,l,i,j,test,b,d,n,k;\n    scanf(&quot;%d&quot;,&amp;test);\n    while(test--)\n    {\n\tscanf(&quot;%d%d&quot;,&amp;n,&amp;k);\n\td=(n-1)/2;\n\tl=d;\n\tp=pow(2,d);\n\tfor(i=0;i&lt;p;i++)\n\t{\n\t    \tb=i;\n\t\tfor(j=l-1;j&gt;=0;j--)\n\t\t{\n\t\t\ta[i][j]=(b&amp;1);\n\t\t\tb=b&gt;&gt;1;\n\t\t}\n\t}\n\tfor(i=0;i&lt;p;i++)\n\t{\n\t    for(j=0;j&lt;l;j++)\n\t    {\n\t\tprintf(&quot;%d &quot;,a[i][j]);\n\t    }\n\t    printf(&quot;\\n&quot;);\n\t}\n    }\n    return 0;\n}\nFieldStorage object</div></td></tr></table></div></td></tr><tr><td style="font-weight:bold;vertical-align:top">wsgi</td><td valign="top">:</td><td><div><table><tr><td style="font-weight:bold;vertical-align:top">environ</td><td valign="top">:</td><td><div><table><tr><td style="font-weight:bold;vertical-align:top">CONTENT_LENGTH</td><td valign="top">:</td><td><div>1009</div></td></tr><tr><td style="font-weight:bold;vertical-align:top">CONTENT_TYPE</td><td valign="top">:</td><td><div>multipart/form-data; boundary=---------------------------705073675252919191734668815</div></td></tr><tr><td style="font-weight:bold;vertical-align:top">HTTP_ACCEPT</td><td valign="top">:</td><td><div>text/html,application/xhtml+xml,application/xml;q=0.9,*/*;q=0.8</div></td></tr><tr><td style="font-weight:bold;vertical-align:top">HTTP_ACCEPT_ENCODING</td><td valign="top">:</td><td><div>gzip, deflate</div></td></tr><tr><td style="font-weight:bold;vertical-align:top">HTTP_ACCEPT_LANGUAGE</td><td valign="top">:</td><td><div>en-US,en;q=0.5</div></td></tr><tr><td style="font-weight:bold;vertical-align:top">HTTP_CONNECTION</td><td valign="top">:</td><td><div>keep-alive</div></td></tr><tr><td style="font-weight:bold;vertical-align:top">HTTP_CONTENT_LENGTH</td><td valign="top">:</td><td><div>1009</div></td></tr><tr><td style="font-weight:bold;vertical-align:top">HTTP_CONTENT_TYPE</td><td valign="top">:</td><td><div>multipart/form-data; boundary=---------------------------705073675252919191734668815</div></td></tr><tr><td style="font-weight:bold;vertical-align:top">HTTP_COOKIE</td><td valign="top">:</td><td><div>session_id_welcome=127.0.0.1-6b0e8c2b-80d4-48e8-b2c5-fe392ae74c85; session_id_admin=127.0.0.1-ac2603db-f376-4435-a741-89c4a2cfb513; session_id_project=127.0.0.1-023dc7a1-7109-4d74-b767-d6a61443d54c</div></td></tr><tr><td style="font-weight:bold;vertical-align:top">HTTP_HOST</td><td valign="top">:</td><td><div>127.0.0.1:8000</div></td></tr><tr><td style="font-weight:bold;vertical-align:top">HTTP_REFERER</td><td valign="top">:</td><td><div>http://127.0.0.1:8000/project/default/modify/63</div></td></tr><tr><td style="font-weight:bold;vertical-align:top">HTTP_USER_AGENT</td><td valign="top">:</td><td><div>Mozilla/5.0 (X11; Ubuntu; Linux i686; rv:18.0) Gecko/20100101 Firefox/18.0</div></td></tr><tr><td style="font-weight:bold;vertical-align:top">PATH_INFO</td><td valign="top">:</td><td><div>/project/default/modify/63</div></td></tr><tr><td style="font-weight:bold;vertical-align:top">QUERY_STRING</td><td valign="top">:</td><td><div></div></td></tr><tr><td style="font-weight:bold;vertical-align:top">REMOTE_ADDR</td><td valign="top">:</td><td><div>127.0.0.1</div></td></tr><tr><td style="font-weight:bold;vertical-align:top">REMOTE_PORT</td><td valign="top">:</td><td><div>59985</div></td></tr><tr><td style="font-weight:bold;vertical-align:top">REQUEST_METHOD</td><td valign="top">:</td><td><div>POST</div></td></tr><tr><td style="font-weight:bold;vertical-align:top">REQUEST_URI</td><td valign="top">:</td><td><div>/project/default/modify/63</div></td></tr><tr><td style="font-weight:bold;vertical-align:top">SCRIPT_NAME</td><td valign="top">:</td><td><div></div></td></tr><tr><td style="font-weight:bold;vertical-align:top">SERVER_NAME</td><td valign="top">:</td><td><div>ashish-PC</div></td></tr><tr><td style="font-weight:bold;vertical-align:top">SERVER_PORT</td><td valign="top">:</td><td><div>8000</div></td></tr><tr><td style="font-weight:bold;vertical-align:top">SERVER_PROTOCOL</td><td valign="top">:</td><td><div>HTTP/1.1</div></td></tr><tr><td style="font-weight:bold;vertical-align:top">SERVER_SOFTWARE</td><td valign="top">:</td><td><div>Rocket 1.2.6</div></td></tr><tr><td style="font-weight:bold;vertical-align:top">wsgi.errors</td><td valign="top">:</td><td><div>&lt;open file &#x27;&lt;stderr&gt;&#x27;, mode &#x27;w&#x27; at 0xb72bd0d0&gt;</div></td></tr><tr><td style="font-weight:bold;vertical-align:top">wsgi.file_wrapper</td><td valign="top">:</td><td><div>&lt;class wsgiref.util.FileWrapper at 0x94d2e3c&gt;</div></td></tr><tr><td style="font-weight:bold;vertical-align:top">wsgi.input</td><td valign="top">:</td><td><div>&lt;open file &#x27;&lt;fdopen&gt;&#x27;, mode &#x27;w+b&#x27; at 0xad31a7b0&gt;</div></td></tr><tr><td style="font-weight:bold;vertical-align:top">wsgi.multiprocess</td><td valign="top">:</td><td><div>False</div></td></tr><tr><td style="font-weight:bold;vertical-align:top">wsgi.multithread</td><td valign="top">:</td><td><div>True</div></td></tr><tr><td style="font-weight:bold;vertical-align:top">wsgi.run_once</td><td valign="top">:</td><td><div>False</div></td></tr><tr><td style="font-weight:bold;vertical-align:top">wsgi.url_scheme</td><td valign="top">:</td><td><div>http</div></td></tr><tr><td style="font-weight:bold;vertical-align:top">wsgi.version</td><td valign="top">:</td><td><div>1</div></td></tr></table></div></td></tr></table></div></td></tr></table></div>'
tRp58
sS'frames'
p59
(lp60
(dp61
S'file'
p62
S'/home/ashish/web2py/gluon/restricted.py'
p63
sS'dump'
p64
(dp65
S'environment'
p66
S"{'A': <class 'gluon.html.A'>, 'Auth': <class 'gluon.tools.Auth'>, 'B': <class 'gluon.html.B'>, 'BEAUTIFY': <class 'gluon.html.BEAUTIFY'>, 'BODY': <class 'gluon.html.BODY'>, 'BR': <class 'gluon.html.BR'>, 'BUTTON': <class 'gluon.html.BUTTON'>, 'CAT': <class 'gluon.html.CAT'>, 'CENTER': <class 'gluon.html.CENTER'>, 'CLEANUP': <class 'gluon.validators.CLEANUP'>, ...}"
p67
sS'ccode'
p68
S'<code object <module> at 0xade515c0, file "/home...ications/project/controllers/default.py", line 1>'
p69
ssS'lnum'
p70
I212
sS'lines'
p71
(dp72
I207
S'    try:'
p73
sI208
S'        if isinstance(code, types.CodeType):'
p74
sI209
S'            ccode = code'
p75
sI210
S'        else:'
p76
sI211
S'            ccode = compile2(code, layer)'
p77
sI212
S'        exec ccode in environment'
p78
sI213
S'    except HTTP:'
p79
sI214
S'        raise'
p80
sI215
S'    except RestrictedError:'
p81
sI216
S'        # do not encapsulate (obfuscate) the original RestrictedError'
p82
ssS'call'
p83
S"(code='import re\\n# -*- coding: utf-8 -*-\\n# this file is...=cur)\\n\\t\\n\\nresponse._vars=response._caller(modify)\\n', environment={'A': <class 'gluon.html.A'>, 'Auth': <class 'gluon.tools.Auth'>, 'B': <class 'gluon.html.B'>, 'BEAUTIFY': <class 'gluon.html.BEAUTIFY'>, 'BODY': <class 'gluon.html.BODY'>, 'BR': <class 'gluon.html.BR'>, 'BUTTON': <class 'gluon.html.BUTTON'>, 'CAT': <class 'gluon.html.CAT'>, 'CENTER': <class 'gluon.html.CENTER'>, 'CLEANUP': <class 'gluon.validators.CLEANUP'>, ...}, layer='/home/ashish/web2py/applications/project/controllers/default.py')"
p84
sS'func'
p85
S'restricted'
p86
sa(dp87
g62
S'/home/ashish/web2py/applications/project/controllers/default.py'
p88
sg64
(dp89
sg70
I291
sg71
(dp90
I288
S'\treturn dict(form=form,shw=shw,cur=cur)'
p91
sI289
S''
sI280
S'\tredirect(URL(dev,args=temp1))'
p92
sI281
S'def modify():'
p93
sI282
S'    \ttemp=request.args(0,cast=int)'
p94
sI283
S'\tshw=db((db.folder.vers>0)&(db.folder.project_id==temp)&(db.project.fl==1)).select(db.folder.ALL)'
p95
sI284
S'\tcur=db(db.folder.project_id==temp).select(db.folder.vers)'
p96
sI285
S'\tform=SQLFORM(db.folder)'
p97
sI286
S'\tif form.process().accepted:'
p98
sI287
S'\t    \tdb.folder.project_id.default=temp'
p99
ssg83
S'()'
p100
sg85
S'<module>'
p101
sa(dp102
g62
S'/home/ashish/web2py/gluon/globals.py'
p103
sg64
(dp104
S'self'
p105
S'undefined'
p106
sS'f'
S'<function modify>'
p107
ssg70
I193
sg71
(dp108
I192
S'        self._vars = None'
p109
sI193
S'        self._caller = lambda f: f()'
p110
sI194
S'        self._view_environment = None'
p111
sI195
S'        self._custom_commit = None'
p112
sI196
S'        self._custom_rollback = None'
p113
sI197
S''
sI188
S'        self.menu = []             # used by the default view layout'
p114
sI189
S'        self.files = []            # used by web2py_ajax.html'
p115
sI190
S'        self.generic_patterns = []  # patterns to allow generic views'
p116
sI191
S"        self.delimiters = ('{{', '}}')"
p117
ssg83
S'(f=<function modify>)'
p118
sg85
S'<lambda>'
p119
sa(dp120
g62
S'/home/ashish/web2py/applications/project/controllers/default.py'
p121
sg64
(dp122
S'form.process'
p123
S'<bound method SQLFORM.process of <gluon.sqlhtml.SQLFORM object>>'
p124
sS').accepted'
p125
g106
sS'form'
p126
S'<gluon.sqlhtml.SQLFORM object>'
p127
ssg70
I286
sg71
(dp128
I288
S'\treturn dict(form=form,shw=shw,cur=cur)'
p129
sI289
S''
sI280
S'\tredirect(URL(dev,args=temp1))'
p130
sI281
S'def modify():'
p131
sI282
S'    \ttemp=request.args(0,cast=int)'
p132
sI283
S'\tshw=db((db.folder.vers>0)&(db.folder.project_id==temp)&(db.project.fl==1)).select(db.folder.ALL)'
p133
sI284
S'\tcur=db(db.folder.project_id==temp).select(db.folder.vers)'
p134
sI285
S'\tform=SQLFORM(db.folder)'
p135
sI286
S'\tif form.process().accepted:'
p136
sI287
S'\t    \tdb.folder.project_id.default=temp'
p137
ssg83
S'()'
p138
sg85
S'modify'
p139
sa(dp140
g62
S'/home/ashish/web2py/gluon/html.py'
p141
sg64
(dp142
S'self'
p143
S'<gluon.sqlhtml.SQLFORM object>'
p144
sS'self.validate'
p145
S'<bound method SQLFORM.validate of <gluon.sqlhtml.SQLFORM object>>'
p146
sS'kwargs'
p147
S"{'dbio': True}"
p148
ssg70
I2178
sg71
(dp149
I2176
S"        kwargs['dbio'] = kwargs.get('dbio', True)"
p150
sI2177
S'                                    # necessary for SQLHTML forms'
p151
sI2178
S'        self.validate(**kwargs)'
p152
sI2179
S'        return self'
p153
sI2180
S''
sI2181
S'    REDIRECT_JS = "window.location=\'%s\';return false"'
p154
sI2182
S''
sI2173
S'        def action():'
p155
sI2174
S'            return dict(form=SQLFORM(db.table).process(onsuccess=my_callback)'
p156
sI2175
S'        """'
p157
ssg83
S"(self=<gluon.sqlhtml.SQLFORM object>, **kwargs={'dbio': True})"
p158
sg85
S'process'
p159
sa(dp160
g62
S'/home/ashish/web2py/gluon/html.py'
p161
sg64
(dp162
S'self'
p163
S'<gluon.sqlhtml.SQLFORM object>'
p164
sS'self.accepts'
p165
S'<bound method SQLFORM.accepts of <gluon.sqlhtml.SQLFORM object>>'
p166
sS'kwargs'
p167
S"{'dbio': True, 'request_vars': <Storage {'project': FieldStorage('project', 'b....'_formname': 'folder/create', 'description': ''}>, 'session': <Storage {'last_query': 'db.folder.id>0', '_user...login]': '49a40713-417e-427d-a529-2a60b4c46889'}>}"
p168
ssg70
I2117
sg71
(dp169
I2112
S"        for key in ('message_onsuccess', 'message_onfailure', 'onsuccess',"
p170
sI2113
S"                    'onfailure', 'next', 'message_onchange', 'onchange'):"
p171
sI2114
S'            if key in kwargs:'
p172
sI2115
S'                del kwargs[key]'
p173
sI2116
S''
sI2117
S'        if self.accepts(**kwargs):'
p174
sI2118
S"            if onsuccess == 'flash':"
p175
sI2119
S'                if next:'
p176
sI2120
S'                    current.session.flash = message_onsuccess'
p177
sI2121
S'                else:'
p178
ssg83
S"(self=<gluon.sqlhtml.SQLFORM object>, **kwargs={'dbio': True, 'request_vars': <Storage {'project': FieldStorage('project', 'b....'_formname': 'folder/create', 'description': ''}>, 'session': <Storage {'last_query': 'db.folder.id>0', '_user...login]': '49a40713-417e-427d-a529-2a60b4c46889'}>})"
p179
sg85
S'validate'
p180
sa(dp181
g62
S'/home/ashish/web2py/gluon/sqlhtml.py'
p182
sg64
(dp183
S'self.vars.id'
p184
S'None'
p185
sS'fields'
p186
S"{'description': '', 'project': 'folder.project.a757edaf693e47bf.622e63.c', 'project_id': ['63']}"
p187
sS'self'
p188
S'<gluon.sqlhtml.SQLFORM object>'
p189
sS'self.vars'
p190
S"<Storage {'project': 'folder.project.a757edaf693e47bf.622e63.c', 'description': ''}>"
p191
sS'self.table.insert'
p192
S'<bound method Table.insert of <Table folder (id,...,description,modified_by,created_by,project_id)>>'
p193
sS'self.table'
p194
S'<Table folder (id,vers,project,description,modified_by,created_by,project_id)>'
p195
ssg70
I1528
sg71
(dp196
I1523
S'                    self.vars.id = self.record[self.id_field_name]'
p197
sI1524
S'                    if fields:'
p198
sI1525
S'                        self.table._db(self.table._id == self.record['
p199
sI1526
S'                                       self.id_field_name]).update(**fields)'
p200
sI1527
S'                else:'
p201
sI1528
S'                    self.vars.id = self.table.insert(**fields)'
p202
sI1529
S'        self.accepted = ret'
p203
sI1530
S'        return ret'
p204
sI1531
S''
sI1532
S'    AUTOTYPES = {'
p205
ssg83
S"(self=<gluon.sqlhtml.SQLFORM object>, request_vars=<Storage {'project': FieldStorage('project', 'b....'_formname': 'folder/create', 'description': ''}>, session=<Storage {'last_query': 'db.folder.id>0', '_user...login]': '49a40713-417e-427d-a529-2a60b4c46889'}>, formname='folder/create', keepvalues=False, onvalidation=None, dbio=True, hideerror=False, detect_record_change=False, **kwargs={})"
p206
sg85
S'accepts'
p207
sa(dp208
g62
S'/home/ashish/web2py/gluon/dal.py'
p209
sg64
(dp210
S'self._listify'
p211
S'<bound method Table._listify of <Table folder (i...,description,modified_by,created_by,project_id)>>'
p212
sS'fields'
p213
S"{'description': '', 'project': 'folder.project.a757edaf693e47bf.622e63.c', 'project_id': ['63']}"
p214
sS'self'
p215
S'<Table folder (id,vers,project,description,modified_by,created_by,project_id)>'
p216
sS'ret'
p217
g106
sS'self._db._adapter'
p218
S'<gluon.dal.SQLiteAdapter object>'
p219
sS'self._db._adapter.insert'
p220
S'<bound method SQLiteAdapter.insert of <gluon.dal.SQLiteAdapter object>>'
p221
sS'self._db'
p222
S'<DAL uri="sqlite://storage.sqlite">'
p223
ssg70
I8442
sg71
(dp224
I8437
S''
sI8438
S'    def insert(self, **fields):'
p225
sI8439
S'        fields = self._defaults(fields)'
p226
sI8440
S'        self._attempt_upload(fields)'
p227
sI8441
S'        if any(f(fields) for f in self._before_insert): return 0'
p228
sI8442
S'        ret =  self._db._adapter.insert(self, self._listify(fields))'
p229
sI8443
S'        if ret and self._after_insert:'
p230
sI8444
S'            fields = Row(fields)'
p231
sI8445
S'            [f(fields,ret) for f in self._after_insert]'
p232
sI8446
S'        return ret'
p233
ssg83
S"(self=<Table folder (id,vers,project,description,modified_by,created_by,project_id)>, **fields={'description': '', 'project': 'folder.project.a757edaf693e47bf.622e63.c', 'project_id': ['63']})"
p234
sg85
S'insert'
p235
sa(dp236
g62
S'/home/ashish/web2py/gluon/dal.py'
p237
sg64
(dp238
S'self._insert'
p239
S'<bound method SQLiteAdapter._insert of <gluon.dal.SQLiteAdapter object>>'
p240
sS'query'
p241
g106
sS'self'
p242
S'<gluon.dal.SQLiteAdapter object>'
p243
sS'fields'
p244
S"[(<gluon.dal.Field object>, 'folder.project.a757edaf693e47bf.622e63.c'), (<gluon.dal.Field object>, ['63']), (<gluon.dal.Field object>, '')]"
p245
sS'table'
p246
S'<Table folder (id,vers,project,description,modified_by,created_by,project_id)>'
p247
ssg70
I1199
sg71
(dp248
I1194
S''
sI1195
S'    def _insert_empty(self, table):'
p249
sI1196
S"        return 'INSERT INTO %s DEFAULT VALUES;' % table"
p250
sI1197
S''
sI1198
S'    def insert(self, table, fields):'
p251
sI1199
S'        query = self._insert(table,fields)'
p252
sI1200
S'        try:'
p253
sI1201
S'            self.execute(query)'
p254
sI1202
S'        except Exception:'
p255
sI1203
S'            e = sys.exc_info()[1]'
p256
ssg83
S"(self=<gluon.dal.SQLiteAdapter object>, table=<Table folder (id,vers,project,description,modified_by,created_by,project_id)>, fields=[(<gluon.dal.Field object>, 'folder.project.a757edaf693e47bf.622e63.c'), (<gluon.dal.Field object>, ['63']), (<gluon.dal.Field object>, '')])"
p257
sg85
g235
sa(dp258
g62
S'/home/ashish/web2py/gluon/dal.py'
p259
sg64
(dp260
S'f'
g106
sS'fields'
p261
S"[(<gluon.dal.Field object>, 'folder.project.a757edaf693e47bf.622e63.c'), (<gluon.dal.Field object>, ['63']), (<gluon.dal.Field object>, '')]"
p262
sS'self'
p263
S'<gluon.dal.SQLiteAdapter object>'
p264
sS'values'
p265
g106
sS'v'
g106
sS'self.expand'
p266
S'<bound method SQLiteAdapter.expand of <gluon.dal.SQLiteAdapter object>>'
p267
ssg70
I1190
sg71
(dp268
I1185
S"            logfile.write('success!\\n')"
p269
sI1186
S''
sI1187
S'    def _insert(self, table, fields):'
p270
sI1188
S'        if fields:'
p271
sI1189
S"            keys = ','.join(f.name for f, v in fields)"
p272
sI1190
S"            values = ','.join(self.expand(v, f.type) for f, v in fields)"
p273
sI1191
S"            return 'INSERT INTO %s(%s) VALUES (%s);' % (table, keys, values)"
p274
sI1192
S'        else:'
p275
sI1193
S'            return self._insert_empty(table)'
p276
sI1194
S''
ssg83
S"(self=<gluon.dal.SQLiteAdapter object>, table=<Table folder (id,vers,project,description,modified_by,created_by,project_id)>, fields=[(<gluon.dal.Field object>, 'folder.project.a757edaf693e47bf.622e63.c'), (<gluon.dal.Field object>, ['63']), (<gluon.dal.Field object>, '')])"
p277
sg85
S'_insert'
p278
sa(dp279
g62
S'/home/ashish/web2py/gluon/dal.py'
p280
sg64
(dp281
S'f'
S'<gluon.dal.Field object>'
p282
sS'fields'
p283
g106
sS'self'
p284
S'<gluon.dal.SQLiteAdapter object>'
p285
sS'f.type'
p286
S"'integer'"
p287
sS'values'
p288
g106
sS'v'
S"['63']"
p289
sS'self.expand'
p290
S'<bound method SQLiteAdapter.expand of <gluon.dal.SQLiteAdapter object>>'
p291
ssg70
I1190
sg71
(dp292
I1185
S"            logfile.write('success!\\n')"
p293
sI1186
S''
sI1187
S'    def _insert(self, table, fields):'
p294
sI1188
S'        if fields:'
p295
sI1189
S"            keys = ','.join(f.name for f, v in fields)"
p296
sI1190
S"            values = ','.join(self.expand(v, f.type) for f, v in fields)"
p297
sI1191
S"            return 'INSERT INTO %s(%s) VALUES (%s);' % (table, keys, values)"
p298
sI1192
S'        else:'
p299
sI1193
S'            return self._insert_empty(table)'
p300
sI1194
S''
ssg83
S"((f=<gluon.dal.Field object>, v=['63']))"
p301
sg85
S'<genexpr>'
p302
sa(dp303
g62
S'/home/ashish/web2py/gluon/dal.py'
p304
sg64
(dp305
S'builtinstr'
p306
S"<type 'str'>"
p307
sS'field_type'
p308
S"'integer'"
p309
sS'self'
p310
S'<gluon.dal.SQLiteAdapter object>'
p311
sS'expression'
p312
S"['63']"
p313
sS'self.represent'
p314
S'<bound method SQLiteAdapter.represent of <gluon.dal.SQLiteAdapter object>>'
p315
ssg70
I1366
sg71
(dp316
I1361
S'                    op=op[:-1]'
p317
sI1362
S"                return '(%s)' % op"
p318
sI1363
S'            else:'
p319
sI1364
S'                return op()'
p320
sI1365
S'        elif field_type:'
p321
sI1366
S'            return str(self.represent(expression,field_type))'
p322
sI1367
S'        elif isinstance(expression,(list,tuple)):'
p323
sI1368
S"            return ','.join(self.represent(item,field_type) \\"
p324
sI1369
S'                                for item in expression)'
p325
sI1370
S'        elif isinstance(expression, bool):'
p326
ssg83
S"(self=<gluon.dal.SQLiteAdapter object>, expression=['63'], field_type='integer')"
p327
sg85
S'expand'
p328
sa(dp329
g62
S'/home/ashish/web2py/gluon/dal.py'
p330
sg64
(dp331
S'builtinstr'
p332
S"<type 'str'>"
p333
sS'builtinint'
p334
S"<type 'int'>"
p335
sS'obj'
p336
S"'|63|'"
p337
ssg70
I1796
sg71
(dp338
I1792
S'                return self.smart_adapt(self.TRUE)'
p339
sI1793
S'            else:'
p340
sI1794
S'                return self.smart_adapt(self.FALSE)'
p341
sI1795
S"        if fieldtype == 'id' or fieldtype == 'integer':"
p342
sI1796
S'            return str(int(obj))'
p343
sI1797
S"        if field_is_type('decimal'):"
p344
sI1798
S'            return str(obj)'
p345
sI1799
S"        elif field_is_type('reference'): # reference"
p346
sI1800
S"            if fieldtype.find('.')>0:"
p347
sI1791
S"            if obj and not str(obj)[:1].upper() in '0F':"
p348
ssg83
S"(self=<gluon.dal.SQLiteAdapter object>, obj='|63|', fieldtype='integer')"
p349
sg85
S'represent'
p350
sasS'pyver'
p351
S'Python 2.7.3: /usr/bin/python (prefix: /usr)'
p352
sS'session'
p353
g57
(S's\xfd\t\x00\x00<div><table><tr><td style="font-weight:bold;vertical-align:top">auth</td><td valign="top">:</td><td><div><table><tr><td style="font-weight:bold;vertical-align:top">expiration</td><td valign="top">:</td><td><div>3600</div></td></tr><tr><td style="font-weight:bold;vertical-align:top">hmac_key</td><td valign="top">:</td><td><div>f10f3e87-3354-4316-a5b4-85c36df1a52b</div></td></tr><tr><td style="font-weight:bold;vertical-align:top">last_visit</td><td valign="top">:</td><td><div>datetime.datetime(2013, 4, 14, 22, 50, 51, 274834)</div></td></tr><tr><td style="font-weight:bold;vertical-align:top">remember</td><td valign="top">:</td><td><div>False</div></td></tr><tr><td style="font-weight:bold;vertical-align:top">user</td><td valign="top">:</td><td><div><table><tr><td style="font-weight:bold;vertical-align:top">Photo</td><td valign="top">:</td><td><div>auth_user.Photo.bcccde6da4286c3b.312e706e67.png</div></td></tr><tr><td style="font-weight:bold;vertical-align:top">email</td><td valign="top">:</td><td><div>akash.wanted@gmail.com</div></td></tr><tr><td style="font-weight:bold;vertical-align:top">first_name</td><td valign="top">:</td><td><div>AKASH</div></td></tr><tr><td style="font-weight:bold;vertical-align:top">id</td><td valign="top">:</td><td><div>23</div></td></tr><tr><td style="font-weight:bold;vertical-align:top">last_name</td><td valign="top">:</td><td><div>AGRAWALL</div></td></tr><tr><td style="font-weight:bold;vertical-align:top">registration_id</td><td valign="top">:</td><td><div></div></td></tr><tr><td style="font-weight:bold;vertical-align:top">registration_key</td><td valign="top">:</td><td><div></div></td></tr><tr><td style="font-weight:bold;vertical-align:top">reset_password_key</td><td valign="top">:</td><td><div></div></td></tr><tr><td style="font-weight:bold;vertical-align:top">username</td><td valign="top">:</td><td><div>aka</div></td></tr></table></div></td></tr><tr><td style="font-weight:bold;vertical-align:top">user_groups</td><td valign="top">:</td><td><div><table><tr><td style="font-weight:bold;vertical-align:top">16</td><td valign="top">:</td><td><div>user_23</div></td></tr></table></div></td></tr></table></div></td></tr><tr><td style="font-weight:bold;vertical-align:top">flash</td><td valign="top">:</td><td><div>None</div></td></tr><tr><td style="font-weight:bold;vertical-align:top">last_orderby</td><td valign="top">:</td><td><div>None</div></td></tr><tr><td style="font-weight:bold;vertical-align:top">last_query</td><td valign="top">:</td><td><div>db.folder.id&gt;0</div></td></tr></table></div>'
tRp354
sS'etype'
p355
S"<type 'exceptions.ValueError'>"
p356
sS'date'
p357
S'Sun Apr 14 22:53:11 2013'
p358
sS'response'
p359
g57
(S'sC\x15\x00\x00<div><table><tr><td style="font-weight:bold;vertical-align:top">body</td><td valign="top">:</td><td><div>&lt;cStringIO.StringO object at 0xad656100&gt;</div></td></tr><tr><td style="font-weight:bold;vertical-align:top">cookies</td><td valign="top">:</td><td><div><table><tr><td style="font-weight:bold;vertical-align:top">session_id_project</td><td valign="top">:</td><td><div>127.0.0.1-023dc7a1-7109-4d74-b767-d6a61443d54c<table><tr><td style="font-weight:bold;vertical-align:top">comment</td><td valign="top">:</td><td><div></div></td></tr><tr><td style="font-weight:bold;vertical-align:top">domain</td><td valign="top">:</td><td><div></div></td></tr><tr><td style="font-weight:bold;vertical-align:top">expires</td><td valign="top">:</td><td><div></div></td></tr><tr><td style="font-weight:bold;vertical-align:top">httponly</td><td valign="top">:</td><td><div></div></td></tr><tr><td style="font-weight:bold;vertical-align:top">max-age</td><td valign="top">:</td><td><div></div></td></tr><tr><td style="font-weight:bold;vertical-align:top">path</td><td valign="top">:</td><td><div>/</div></td></tr><tr><td style="font-weight:bold;vertical-align:top">secure</td><td valign="top">:</td><td><div></div></td></tr><tr><td style="font-weight:bold;vertical-align:top">version</td><td valign="top">:</td><td><div></div></td></tr></table></div></td></tr></table></div></td></tr><tr><td style="font-weight:bold;vertical-align:top">delimiters</td><td valign="top">:</td><td><div><table><tr><td><div>{{</div></td></tr><tr><td><div>}}</div></td></tr></table></div></td></tr><tr><td style="font-weight:bold;vertical-align:top">files</td><td valign="top">:</td><td><div><table></table></div></td></tr><tr><td style="font-weight:bold;vertical-align:top">flash</td><td valign="top">:</td><td><div></div></td></tr><tr><td style="font-weight:bold;vertical-align:top">generic_patterns</td><td valign="top">:</td><td><div><table><tr><td><div>*</div></td></tr></table></div></td></tr><tr><td style="font-weight:bold;vertical-align:top">google_analytics_id</td><td valign="top">:</td><td><div>None</div></td></tr><tr><td style="font-weight:bold;vertical-align:top">headers</td><td valign="top">:</td><td><div><table><tr><td style="font-weight:bold;vertical-align:top">X-Powered-By</td><td valign="top">:</td><td><div>web2py</div></td></tr></table></div></td></tr><tr><td style="font-weight:bold;vertical-align:top">menu</td><td valign="top">:</td><td><div><table><tr><td><div><table><tr><td><div>Home</div></td></tr><tr><td><div>False</div></td></tr><tr><td><div>/project/default/index</div></td></tr><tr><td><div><table></table></div></td></tr></table></div></td></tr></table></div></td></tr><tr><td style="font-weight:bold;vertical-align:top">meta</td><td valign="top">:</td><td><div><table><tr><td style="font-weight:bold;vertical-align:top">author</td><td valign="top">:</td><td><div>Your Name &lt;you@example.com&gt;</div></td></tr><tr><td style="font-weight:bold;vertical-align:top">description</td><td valign="top">:</td><td><div>a cool new app</div></td></tr><tr><td style="font-weight:bold;vertical-align:top">generator</td><td valign="top">:</td><td><div>Web2py Web Framework</div></td></tr><tr><td style="font-weight:bold;vertical-align:top">keywords</td><td valign="top">:</td><td><div>web2py, python, framework</div></td></tr></table></div></td></tr><tr><td style="font-weight:bold;vertical-align:top">models_to_run</td><td valign="top">:</td><td><div><table><tr><td><div>^\\w+\\.py$</div></td></tr><tr><td><div>^default/\\w+\\.py$</div></td></tr><tr><td><div>^default/modify/\\w+\\.py$</div></td></tr></table></div></td></tr><tr><td style="font-weight:bold;vertical-align:top">postprocessing</td><td valign="top">:</td><td><div><table></table></div></td></tr><tr><td style="font-weight:bold;vertical-align:top">session_cookie_expires</td><td valign="top">:</td><td><div>None</div></td></tr><tr><td style="font-weight:bold;vertical-align:top">session_data_name</td><td valign="top">:</td><td><div>session_data_project</div></td></tr><tr><td style="font-weight:bold;vertical-align:top">session_file</td><td valign="top">:</td><td><div>&lt;open file &#x27;/home/ashish/web2py/applications/project/sessions/127.0.0.1-023dc7a1-7109-4d74-b767-d6a61443d54c&#x27;, mode &#x27;rb+&#x27; at 0xae097338&gt;</div></td></tr><tr><td style="font-weight:bold;vertical-align:top">session_filename</td><td valign="top">:</td><td><div>/home/ashish/web2py/applications/project/sessions/127.0.0.1-023dc7a1-7109-4d74-b767-d6a61443d54c</div></td></tr><tr><td style="font-weight:bold;vertical-align:top">session_id</td><td valign="top">:</td><td><div>127.0.0.1-023dc7a1-7109-4d74-b767-d6a61443d54c</div></td></tr><tr><td style="font-weight:bold;vertical-align:top">session_id_name</td><td valign="top">:</td><td><div>session_id_project</div></td></tr><tr><td style="font-weight:bold;vertical-align:top">session_locked</td><td valign="top">:</td><td><div>True</div></td></tr><tr><td style="font-weight:bold;vertical-align:top">session_new</td><td valign="top">:</td><td><div>False</div></td></tr><tr><td style="font-weight:bold;vertical-align:top">session_storage_type</td><td valign="top">:</td><td><div>file</div></td></tr><tr><td style="font-weight:bold;vertical-align:top">status</td><td valign="top">:</td><td><div>200</div></td></tr><tr><td style="font-weight:bold;vertical-align:top">view</td><td valign="top">:</td><td><div>default/modify.html</div></td></tr></table></div>'
tRp360
sS'locals'
p361
(dp362
S'obj'
p363
S"'|63|'"
p364
sS'self'
p365
S'<gluon.dal.SQLiteAdapter object>'
p366
sS'field_is_type'
p367
S'<built-in method startswith of str object>'
p368
sS'r'
S'None'
p369
sS'fieldtype'
p370
S"'integer'"
p371
sssS'traceback'
p372
S'Traceback (most recent call last):\n  File "/home/ashish/web2py/gluon/restricted.py", line 212, in restricted\n    exec ccode in environment\n  File "/home/ashish/web2py/applications/project/controllers/default.py", line 291, in <module>\n  File "/home/ashish/web2py/gluon/globals.py", line 193, in <lambda>\n    self._caller = lambda f: f()\n  File "/home/ashish/web2py/applications/project/controllers/default.py", line 286, in modify\n    if form.process().accepted:\n  File "/home/ashish/web2py/gluon/html.py", line 2178, in process\n    self.validate(**kwargs)\n  File "/home/ashish/web2py/gluon/html.py", line 2117, in validate\n    if self.accepts(**kwargs):\n  File "/home/ashish/web2py/gluon/sqlhtml.py", line 1528, in accepts\n    self.vars.id = self.table.insert(**fields)\n  File "/home/ashish/web2py/gluon/dal.py", line 8442, in insert\n    ret =  self._db._adapter.insert(self, self._listify(fields))\n  File "/home/ashish/web2py/gluon/dal.py", line 1199, in insert\n    query = self._insert(table,fields)\n  File "/home/ashish/web2py/gluon/dal.py", line 1190, in _insert\n    values = \',\'.join(self.expand(v, f.type) for f, v in fields)\n  File "/home/ashish/web2py/gluon/dal.py", line 1190, in <genexpr>\n    values = \',\'.join(self.expand(v, f.type) for f, v in fields)\n  File "/home/ashish/web2py/gluon/dal.py", line 1366, in expand\n    return str(self.represent(expression,field_type))\n  File "/home/ashish/web2py/gluon/dal.py", line 1796, in represent\n    return str(int(obj))\nValueError: invalid literal for int() with base 10: \'|63|\'\n'
p373
s.